(dp0
S'close_stdout_set_ignore_EPIPE'
p1
(lp2
(lp3
L-4L
aL1L
aa(lp4
L8L
aL8L
aasS'xnmalloc'
p5
(lp6
(lp7
L-16L
aL8L
aa(lp8
L-8L
aL8L
aa(lp9
L8L
aL8L
aasS'version_etc_va'
p10
(lp11
(lp12
L-112L
aL8L
aa(lp13
L-96L
aL8L
aa(lp14
L8L
aL8L
aa(lp15
L-136L
aL8L
aa(lp16
L-128L
aL8L
aa(lp17
L-104L
aL8L
aa(lp18
L-120L
aL8L
aa(lp19
L-8L
aL8L
aasS'is_infinite_or_zerol'
p20
(lp21
(lp22
L-3L
aL8L
aa(lp23
L5L
aL8L
aa(lp24
L13L
aL10L
aasS'__strftime_internal_0'
p25
(lp26
(lp27
L-1760L
aL8L
aa(lp28
L-224L
aL8L
aa(lp29
L-216L
aL8L
aa(lp30
L-1748L
aL1L
aa(lp31
L-1744L
aL8L
aa(lp32
L-1672L
aL8L
aa(lp33
L-1736L
aL8L
aa(lp34
L-1728L
aL8L
aa(lp35
L-184L
aL8L
aa(lp36
L-1712L
aL8L
aa(lp37
L-1704L
aL8L
aa(lp38
L-44L
aL4L
aa(lp39
L-677L
aL1L
aa(lp40
L-672L
aL1L
aa(lp41
L-1664L
aL8L
aa(lp42
L-1688L
aL8L
aa(lp43
L-148L
aL4L
aa(lp44
L-144L
aL4L
aa(lp45
L-40L
aL8L
aa(lp46
L-140L
aL4L
aa(lp47
L-136L
aL8L
aa(lp48
L-640L
aL8L
aa(lp49
L-208L
aL8L
aa(lp50
L-124L
aL4L
aa(lp51
L-632L
aL8L
aa(lp52
L-624L
aL8L
aa(lp53
L-120L
aL8L
aa(lp54
L-105L
aL1L
aa(lp55
L-616L
aL8L
aa(lp56
L-608L
aL4L
aa(lp57
L-32L
aL8L
aa(lp58
L-94L
aL1L
aa(lp59
L-93L
aL1L
aa(lp60
L-604L
aL4L
aa(lp61
L-600L
aL4L
aa(lp62
L-596L
aL4L
aa(lp63
L-592L
aL8L
aa(lp64
L-200L
aL8L
aa(lp65
L-584L
aL8L
aa(lp66
L-68L
aL4L
aa(lp67
L-576L
aL8L
aa(lp68
L-112L
aL4L
aa(lp69
L-62L
aL1L
aa(lp70
L-61L
aL1L
aa(lp71
L-60L
aL4L
aa(lp72
L-568L
aL8L
aa(lp73
L-52L
aL4L
aa(lp74
L-48L
aL4L
aa(lp75
L-24L
aL8L
aa(lp76
L-556L
aL4L
aa(lp77
L-552L
aL4L
aa(lp78
L-548L
aL4L
aa(lp79
L-544L
aL8L
aa(lp80
L-192L
aL8L
aa(lp81
L-536L
aL8L
aa(lp82
L-528L
aL8L
aa(lp83
L-104L
aL8L
aa(lp84
L-520L
aL8L
aa(lp85
L-4L
aL4L
aa(lp86
L-16L
aL8L
aa(lp87
L-508L
aL4L
aa(lp88
L-504L
aL8L
aa(lp89
L-496L
aL8L
aa(lp90
L-1720L
aL8L
aa(lp91
L-488L
aL8L
aa(lp92
L-480L
aL8L
aa(lp93
L-472L
aL8L
aa(lp94
L-464L
aL8L
aa(lp95
L-456L
aL8L
aa(lp96
L-92L
aL4L
aa(lp97
L-448L
aL8L
aa(lp98
L-176L
aL8L
aa(lp99
L-440L
aL8L
aa(lp100
L-432L
aL8L
aa(lp101
L-88L
aL8L
aa(lp102
L-424L
aL8L
aa(lp103
L-416L
aL8L
aa(lp104
L-408L
aL8L
aa(lp105
L-400L
aL8L
aa(lp106
L-168L
aL8L
aa(lp107
L-392L
aL8L
aa(lp108
L-384L
aL8L
aa(lp109
L-80L
aL8L
aa(lp110
L-376L
aL8L
aa(lp111
L-368L
aL8L
aa(lp112
L8L
aL8L
aa(lp113
L-360L
aL8L
aa(lp114
L-352L
aL8L
aa(lp115
L-160L
aL8L
aa(lp116
L-1696L
aL8L
aa(lp117
L-340L
aL4L
aa(lp118
L-336L
aL8L
aa(lp119
L-328L
aL8L
aa(lp120
L-320L
aL8L
aa(lp121
L16L
aL8L
aa(lp122
L-312L
aL8L
aa(lp123
L-152L
aL4L
aa(lp124
L-301L
aL1L
aa(lp125
L-300L
aL4L
aa(lp126
L-296L
aL8L
aa(lp127
L-288L
aL8L
aa(lp128
L-280L
aL8L
aa(lp129
L-272L
aL8L
aa(lp130
L24L
aL4L
aa(lp131
L-264L
aL8L
aa(lp132
L-256L
aL8L
aa(lp133
L-1680L
aL8L
aa(lp134
L-248L
aL8L
aa(lp135
L-240L
aL8L
aa(lp136
L-56L
aL4L
aa(lp137
L-232L
aL8L
aasS'quote_n_mem'
p138
(lp139
(lp140
L-24L
aL8L
aa(lp141
L-16L
aL8L
aa(lp142
L-4L
aL4L
aa(lp143
L8L
aL8L
aasS'xrealloc'
p144
(lp145
(lp146
L-16L
aL8L
aa(lp147
L-8L
aL8L
aa(lp148
L8L
aL8L
aasS'argmatch'
p149
(lp150
(lp151
L-64L
aL8L
aa(lp152
L-32L
aL8L
aa(lp153
L-16L
aL8L
aa(lp154
L-56L
aL8L
aa(lp155
L-17L
aL1L
aa(lp156
L-48L
aL8L
aa(lp157
L-8L
aL8L
aa(lp158
L-40L
aL8L
aa(lp159
L8L
aL8L
aasS'emit_mandatory_arg_note'
p160
(lp161
(lp162
L8L
aL8L
aasS'print_rel_part'
p163
(lp164
(lp165
L-24L
aL8L
aa(lp166
L-16L
aL8L
aa(lp167
L-4L
aL1L
aa(lp168
L8L
aL8L
aasS'c_toupper'
p169
(lp170
(lp171
L-4L
aL4L
aa(lp172
L8L
aL8L
aasS'time_zone_str'
p173
(lp174
(lp175
L-48L
aL8L
aa(lp176
L-16L
aL4L
aa(lp177
L-9L
aL1L
aa(lp178
L-8L
aL8L
aa(lp179
L-36L
aL4L
aa(lp180
L8L
aL8L
aa(lp181
L-28L
aL4L
aa(lp182
L-24L
aL4L
aa(lp183
L-20L
aL4L
aasS'xalloc_die'
p184
(lp185
(lp186
L-3L
aL8L
aa(lp187
L5L
aL8L
aasS'version_etc_ar'
p188
(lp189
(lp190
L-32L
aL8L
aa(lp191
L-56L
aL8L
aa(lp192
L-48L
aL8L
aa(lp193
L-24L
aL8L
aa(lp194
L-40L
aL8L
aa(lp195
L-8L
aL8L
aa(lp196
L8L
aL8L
aasS'equal_tm'
p197
(lp198
(lp199
L-24L
aL8L
aa(lp200
L-16L
aL8L
aa(lp201
L8L
aL8L
aasS'c_isalpha'
p202
(lp203
(lp204
L-4L
aL4L
aa(lp205
L8L
aL8L
aasS'quotearg_char'
p206
(lp207
(lp208
L-8L
aL8L
aa(lp209
L-12L
aL1L
aa(lp210
L8L
aL8L
aasS'c_ispunct'
p211
(lp212
(lp213
L-4L
aL4L
aa(lp214
L8L
aL8L
aasS'get_stat_mtime'
p215
(lp216
(lp217
L-8L
aL8L
aa(lp218
L8L
aL8L
aasS'debug_strfdate'
p219
(lp220
(lp221
L-29L
aL1L
aa(lp222
L8L
aL8L
aa(lp223
L-52L
aL4L
aa(lp224
L-48L
aL8L
aa(lp225
L-40L
aL8L
aasS'__argmatch_die'
p226
(lp227
(lp228
L-3L
aL8L
aa(lp229
L5L
aL8L
aasS'set_program_name'
p230
(lp231
(lp232
L-24L
aL8L
aa(lp233
L-16L
aL8L
aa(lp234
L8L
aL8L
aa(lp235
L-8L
aL8L
aasS'yyerror'
p236
(lp237
(lp238
L-16L
aL8L
aa(lp239
L-8L
aL8L
aa(lp240
L8L
aL8L
aasS'usage'
p241
(lp242
(lp243
L8L
aL8L
aa(lp244
L-20L
aL4L
aasS'main'
p245
(lp246
(lp247
L-304L
aL8L
aa(lp248
L-48L
aL8L
aa(lp249
L-292L
aL4L
aa(lp250
L-33L
aL1L
aa(lp251
L-32L
aL8L
aa(lp252
L-24L
aL8L
aa(lp253
L-144L
aL8L
aa(lp254
L-136L
aL8L
aa(lp255
L-120L
aL8L
aa(lp256
L-112L
aL8L
aa(lp257
L-100L
aL4L
aa(lp258
L-96L
aL4L
aa(lp259
L8L
aL8L
aa(lp260
L-92L
aL4L
aa(lp261
L-88L
aL4L
aa(lp262
L-81L
aL1L
aa(lp263
L-80L
aL8L
aa(lp264
L-288L
aL1L
aa(lp265
L-65L
aL1L
aa(lp266
L-64L
aL8L
aa(lp267
L-56L
aL8L
aasS'set_hhmmss'
p268
(lp269
(lp270
L-36L
aL4L
aa(lp271
L-32L
aL8L
aa(lp272
L8L
aL8L
aa(lp273
L-24L
aL8L
aa(lp274
L-16L
aL8L
aa(lp275
L-8L
aL8L
aasS'quotearg_alloc_mem'
p276
(lp277
(lp278
L-64L
aL8L
aa(lp279
L-32L
aL8L
aa(lp280
L-16L
aL4L
aa(lp281
L-56L
aL8L
aa(lp282
L-48L
aL8L
aa(lp283
L-24L
aL8L
aa(lp284
L-12L
aL4L
aa(lp285
L-8L
aL8L
aa(lp286
L-40L
aL8L
aa(lp287
L8L
aL8L
aasS'xsum'
p288
(lp289
(lp290
L-32L
aL8L
aa(lp291
L-24L
aL8L
aa(lp292
L8L
aL8L
aa(lp293
L-8L
aL8L
aasS'mktime_ok'
p294
(lp295
(lp296
L-96L
aL8L
aa(lp297
L-64L
aL1L
aa(lp298
L-88L
aL8L
aa(lp299
L-80L
aL8L
aa(lp300
L8L
aL8L
aa(lp301
L-72L
aL8L
aasS'_getopt_internal_r'
p302
(lp303
(lp304
L-64L
aL8L
aa(lp305
L-28L
aL4L
aa(lp306
L-88L
aL8L
aa(lp307
L-20L
aL4L
aa(lp308
L-21L
aL1L
aa(lp309
L-52L
aL4L
aa(lp310
L16L
aL8L
aa(lp311
L-80L
aL8L
aa(lp312
L-56L
aL4L
aa(lp313
L-40L
aL8L
aa(lp314
L-72L
aL8L
aa(lp315
L8L
aL8L
aa(lp316
L24L
aL4L
aasS'c_iscntrl'
p317
(lp318
(lp319
L-4L
aL4L
aa(lp320
L8L
aL8L
aasS'xmemdup'
p321
(lp322
(lp323
L-16L
aL8L
aa(lp324
L-8L
aL8L
aa(lp325
L8L
aL8L
aasS'quotearg_n_custom'
p326
(lp327
(lp328
L-32L
aL8L
aa(lp329
L-24L
aL8L
aa(lp330
L-16L
aL8L
aa(lp331
L8L
aL8L
aa(lp332
L-4L
aL4L
aasS'quotearg_alloc'
p333
(lp334
(lp335
L-24L
aL8L
aa(lp336
L-16L
aL8L
aa(lp337
L8L
aL8L
aa(lp338
L-8L
aL8L
aasS'tzfree'
p339
(lp340
(lp341
L-24L
aL8L
aa(lp342
L-8L
aL8L
aa(lp343
L8L
aL8L
aasS'quotearg_n_style_mem'
p344
(lp345
(lp346
L-64L
aL1L
aa(lp347
L-88L
aL8L
aa(lp348
L-80L
aL8L
aa(lp349
L8L
aL8L
aa(lp350
L-72L
aL4L
aa(lp351
L-68L
aL4L
aasS'vasnprintf'
p352
(lp353
(lp354
L-2272L
aL10L
aa(lp355
L-1248L
aL8L
aa(lp356
L-1240L
aL8L
aa(lp357
L-2256L
aL8L
aa(lp358
L-2248L
aL8L
aa(lp359
L-196L
aL4L
aa(lp360
L-2240L
aL8L
aa(lp361
L-48L
aL8L
aa(lp362
L-2232L
aL8L
aa(lp363
L-176L
aL8L
aa(lp364
L-1496L
aL8L
aa(lp365
L-168L
aL8L
aa(lp366
L-480L
aL4L
aa(lp367
L-160L
aL8L
aa(lp368
L-224L
aL8L
aa(lp369
L-152L
aL8L
aa(lp370
L-144L
aL8L
aa(lp371
L-136L
aL8L
aa(lp372
L-128L
aL8L
aa(lp373
L-208L
aL8L
aa(lp374
L-116L
aL4L
aa(lp375
L-112L
aL8L
aa(lp376
L-100L
aL4L
aa(lp377
L-608L
aL8L
aa(lp378
L-600L
aL8L
aa(lp379
L-592L
aL8L
aa(lp380
L-584L
aL8L
aa(lp381
L-576L
aL8L
aa(lp382
L-568L
aL4L
aa(lp383
L-564L
aL4L
aa(lp384
L-560L
aL10L
aa(lp385
L-24L
aL8L
aa(lp386
L-40L
aL8L
aa(lp387
L-32L
aL8L
aa(lp388
L-192L
aL10L
aa(lp389
L-536L
aL8L
aa(lp390
L-528L
aL8L
aa(lp391
L-520L
aL8L
aa(lp392
L-512L
aL8L
aa(lp393
L-504L
aL8L
aa(lp394
L-1524L
aL4L
aa(lp395
L-1520L
aL4L
aa(lp396
L-492L
aL4L
aa(lp397
L-488L
aL4L
aa(lp398
L-1510L
aL2L
aa(lp399
L-484L
aL4L
aa(lp400
L-1506L
aL2L
aa(lp401
L-1504L
aL1L
aa(lp402
L-96L
aL8L
aa(lp403
L-476L
aL4L
aa(lp404
L-472L
aL4L
aa(lp405
L-468L
aL4L
aa(lp406
L-464L
aL8L
aa(lp407
L-8L
aL8L
aa(lp408
L-456L
aL8L
aa(lp409
L-448L
aL8L
aa(lp410
L-2224L
aL1L
aa(lp411
L-440L
aL4L
aa(lp412
L-436L
aL4L
aa(lp413
L-432L
aL8L
aa(lp414
L-88L
aL8L
aa(lp415
L-216L
aL8L
aa(lp416
L-424L
aL8L
aa(lp417
L-416L
aL8L
aa(lp418
L-408L
aL8L
aa(lp419
L-394L
aL2L
aa(lp420
L-392L
aL8L
aa(lp421
L-384L
aL4L
aa(lp422
L-80L
aL8L
aa(lp423
L-380L
aL4L
aa(lp424
L-376L
aL8L
aa(lp425
L-368L
aL8L
aa(lp426
L8L
aL8L
aa(lp427
L-360L
aL8L
aa(lp428
L-352L
aL8L
aa(lp429
L-344L
aL8L
aa(lp430
L-336L
aL8L
aa(lp431
L-72L
aL8L
aa(lp432
L-328L
aL8L
aa(lp433
L-320L
aL8L
aa(lp434
L-1264L
aL8L
aa(lp435
L-312L
aL8L
aa(lp436
L-304L
aL8L
aa(lp437
L-296L
aL8L
aa(lp438
L-1516L
aL4L
aa(lp439
L-64L
aL8L
aa(lp440
L-284L
aL4L
aa(lp441
L-280L
aL8L
aa(lp442
L-1256L
aL8L
aa(lp443
L-268L
aL4L
aa(lp444
L-264L
aL8L
aa(lp445
L-252L
aL4L
aa(lp446
L-248L
aL8L
aa(lp447
L-1508L
aL2L
aa(lp448
L-240L
aL8L
aa(lp449
L-56L
aL8L
aa(lp450
L-232L
aL8L
aasS'iso_week_days'
p451
(lp452
(lp453
L-24L
aL4L
aa(lp454
L-4L
aL4L
aa(lp455
L-20L
aL4L
aa(lp456
L8L
aL8L
aasS'mktime_internal'
p457
(lp458
(lp459
L-224L
aL8L
aa(lp460
L-160L
aL8L
aa(lp461
L-92L
aL4L
aa(lp462
L-344L
aL8L
aa(lp463
L-116L
aL4L
aa(lp464
L-336L
aL8L
aa(lp465
L-328L
aL8L
aa(lp466
L-32L
aL4L
aa(lp467
L-200L
aL8L
aa(lp468
L-68L
aL4L
aa(lp469
L-40L
aL4L
aa(lp470
L-320L
aL1L
aa(lp471
L-112L
aL8L
aa(lp472
L-60L
aL4L
aa(lp473
L-56L
aL4L
aa(lp474
L-52L
aL4L
aa(lp475
L-48L
aL4L
aa(lp476
L-176L
aL8L
aa(lp477
L-216L
aL8L
aa(lp478
L-44L
aL4L
aa(lp479
L-168L
aL8L
aa(lp480
L-36L
aL4L
aa(lp481
L-288L
aL4L
aa(lp482
L-192L
aL8L
aa(lp483
L-28L
aL4L
aa(lp484
L-24L
aL4L
aa(lp485
L-20L
aL4L
aa(lp486
L-148L
aL4L
aa(lp487
L-128L
aL8L
aa(lp488
L-64L
aL4L
aa(lp489
L-144L
aL4L
aa(lp490
L-104L
aL8L
aa(lp491
L-140L
aL4L
aa(lp492
L-136L
aL8L
aa(lp493
L-72L
aL4L
aa(lp494
L-256L
aL8L
aa(lp495
L-208L
aL8L
aa(lp496
L-8L
aL8L
aa(lp497
L8L
aL8L
aa(lp498
L-244L
aL4L
aa(lp499
L-80L
aL8L
aa(lp500
L-240L
aL8L
aa(lp501
L-16L
aL8L
aa(lp502
L-232L
aL8L
aa(lp503
L-88L
aL8L
aasS'quoting_options_from_style'
p504
(lp505
(lp506
L-48L
aL8L
aa(lp507
L-32L
aL8L
aa(lp508
L-76L
aL4L
aa(lp509
L-72L
aL8L
aa(lp510
L-16L
aL8L
aa(lp511
L-64L
aL8L
aa(lp512
L-40L
aL8L
aa(lp513
L-24L
aL8L
aa(lp514
L-56L
aL8L
aa(lp515
L8L
aL8L
aasS'debug_strfdatetime'
p516
(lp517
(lp518
L-48L
aL1L
aa(lp519
L-76L
aL4L
aa(lp520
L-72L
aL8L
aa(lp521
L-4L
aL4L
aa(lp522
L-64L
aL8L
aa(lp523
L-8L
aL4L
aa(lp524
L-56L
aL8L
aa(lp525
L8L
aL8L
aasS'shr'
p526
(lp527
(lp528
L-28L
aL4L
aa(lp529
L-8L
aL8L
aa(lp530
L-24L
aL8L
aa(lp531
L8L
aL8L
aasS'printf_fetchargs'
p532
(lp533
(lp534
L-32L
aL8L
aa(lp535
L-24L
aL8L
aa(lp536
L-16L
aL8L
aa(lp537
L8L
aL8L
aa(lp538
L-8L
aL8L
aasS'x2nrealloc'
p539
(lp540
(lp541
L-40L
aL8L
aa(lp542
L-32L
aL8L
aa(lp543
L-24L
aL8L
aa(lp544
L-8L
aL8L
aa(lp545
L8L
aL8L
aasS'time_overflow'
p546
(lp547
(lp548
L-8L
aL8L
aa(lp549
L8L
aL8L
aasS'get_quoting_style'
p550
(lp551
(lp552
L-8L
aL8L
aa(lp553
L8L
aL8L
aasS'quotearg_char_mem'
p554
(lp555
(lp556
L-64L
aL8L
aa(lp557
L-48L
aL8L
aa(lp558
L-56L
aL8L
aa(lp559
L-32L
aL8L
aa(lp560
L-84L
aL1L
aa(lp561
L-16L
aL8L
aa(lp562
L-80L
aL8L
aa(lp563
L-40L
aL8L
aa(lp564
L-72L
aL8L
aa(lp565
L-24L
aL8L
aa(lp566
L8L
aL8L
aasS'yylex'
p567
(lp568
(lp569
L-112L
aL8L
aa(lp570
L-96L
aL1L
aa(lp571
L-16L
aL8L
aa(lp572
L-104L
aL8L
aa(lp573
L-48L
aL8L
aa(lp574
L-36L
aL4L
aa(lp575
L-32L
aL8L
aa(lp576
L-1L
aL1L
aa(lp577
L-64L
aL8L
aa(lp578
L-72L
aL8L
aa(lp579
L-56L
aL8L
aa(lp580
L-40L
aL4L
aa(lp581
L-20L
aL4L
aa(lp582
L8L
aL8L
aasS'c_isdigit'
p583
(lp584
(lp585
L-4L
aL4L
aa(lp586
L8L
aL8L
aasS'close_stdout'
p587
(lp588
(lp589
L-24L
aL8L
aa(lp590
L8L
aL8L
aasS'settime'
p591
(lp592
(lp593
L-40L
aL8L
aa(lp594
L-32L
aL16L
aa(lp595
L-4L
aL4L
aa(lp596
L8L
aL8L
aasS'debug_print_relative_time'
p597
(lp598
(lp599
L-48L
aL8L
aa(lp600
L-40L
aL8L
aa(lp601
L8L
aL8L
aa(lp602
L-17L
aL1L
aasS'xmax'
p603
(lp604
(lp605
L-16L
aL8L
aa(lp606
L-8L
aL8L
aa(lp607
L8L
aL8L
aasS'ydhms_diff'
p608
(lp609
(lp610
L-120L
aL4L
aa(lp611
L8L
aL8L
aa(lp612
L-116L
aL4L
aa(lp613
L16L
aL4L
aa(lp614
L-108L
aL4L
aa(lp615
L-104L
aL8L
aa(lp616
L32L
aL4L
aa(lp617
L-96L
aL8L
aa(lp618
L40L
aL4L
aa(lp619
L-80L
aL8L
aa(lp620
L-72L
aL8L
aa(lp621
L-112L
aL4L
aa(lp622
L-64L
aL8L
aa(lp623
L-56L
aL8L
aa(lp624
L-48L
aL8L
aa(lp625
L-36L
aL4L
aa(lp626
L-32L
aL4L
aa(lp627
L-28L
aL4L
aa(lp628
L-24L
aL4L
aa(lp629
L24L
aL4L
aa(lp630
L-20L
aL4L
aa(lp631
L-16L
aL4L
aa(lp632
L-12L
aL4L
aasS'close_stream'
p633
(lp634
(lp635
L-24L
aL8L
aa(lp636
L8L
aL8L
aa(lp637
L-3L
aL1L
aa(lp638
L-2L
aL1L
aa(lp639
L-1L
aL1L
aasS'stat_time_normalize'
p640
(lp641
(lp642
L-16L
aL8L
aa(lp643
L-4L
aL4L
aa(lp644
L8L
aL8L
aasS'guess_time_tm'
p645
(lp646
(lp647
L-64L
aL8L
aa(lp648
L-32L
aL8L
aa(lp649
L-16L
aL8L
aa(lp650
L-24L
aL8L
aa(lp651
L-52L
aL4L
aa(lp652
L16L
aL8L
aa(lp653
L-48L
aL4L
aa(lp654
L-8L
aL8L
aa(lp655
L-44L
aL4L
aa(lp656
L-40L
aL8L
aa(lp657
L8L
aL8L
aasS'c_isspace'
p658
(lp659
(lp660
L-4L
aL4L
aa(lp661
L8L
aL8L
aasS'get_stat_ctime'
p662
(lp663
(lp664
L-8L
aL8L
aa(lp665
L8L
aL8L
aasS'c_isupper'
p666
(lp667
(lp668
L-4L
aL4L
aa(lp669
L8L
aL8L
aasS'hard_locale'
p670
(lp671
(lp672
L-16L
aL8L
aa(lp673
L-20L
aL4L
aa(lp674
L8L
aL8L
aa(lp675
L-1L
aL1L
aasS'year'
p676
(lp677
(lp678
L-16L
aL8L
aa(lp679
L-44L
aL4L
aa(lp680
L-40L
aL8L
aa(lp681
L-32L
aL8L
aa(lp682
L-8L
aL8L
aa(lp683
L8L
aL8L
aa(lp684
L-24L
aL8L
aasS'quotearg'
p685
(lp686
(lp687
L-8L
aL8L
aa(lp688
L8L
aL8L
aasS'debug_mktime_not_ok'
p689
(lp690
(lp691
L-128L
aL1L
aa(lp692
L-156L
aL1L
aa(lp693
L-27L
aL1L
aa(lp694
L-26L
aL1L
aa(lp695
L-25L
aL1L
aa(lp696
L-152L
aL8L
aa(lp697
L-23L
aL1L
aa(lp698
L-22L
aL1L
aa(lp699
L-21L
aL1L
aa(lp700
L-20L
aL4L
aa(lp701
L-144L
aL8L
aa(lp702
L-24L
aL1L
aa(lp703
L-136L
aL8L
aa(lp704
L-8L
aL8L
aa(lp705
L8L
aL8L
aasS'getenv_TZ'
p706
(lp707
(lp708
L-3L
aL8L
aa(lp709
L5L
aL8L
aasS'quotearg_free'
p710
(lp711
(lp712
L-16L
aL8L
aa(lp713
L-4L
aL4L
aa(lp714
L8L
aL8L
aasS'str_days'
p715
(lp716
(lp717
L-4L
aL4L
aa(lp718
L-36L
aL4L
aa(lp719
L-32L
aL8L
aa(lp720
L8L
aL8L
aa(lp721
L-24L
aL8L
aasS'digits_to_date_time'
p722
(lp723
(lp724
L-8L
aL8L
aa(lp725
L24L
aL8L
aa(lp726
L8L
aL8L
aa(lp727
L32L
aL8L
aa(lp728
L16L
aL8L
aasS'__strftime_internal'
p729
(lp730
(lp731
L-2000L
aL8L
aa(lp732
L-464L
aL8L
aa(lp733
L-1992L
aL8L
aa(lp734
L-448L
aL8L
aa(lp735
L-1912L
aL8L
aa(lp736
L-1980L
aL1L
aa(lp737
L-1976L
aL8L
aa(lp738
L-1968L
aL8L
aa(lp739
L-128L
aL8L
aa(lp740
L-424L
aL8L
aa(lp741
L-1952L
aL8L
aa(lp742
L-456L
aL8L
aa(lp743
L-72L
aL8L
aa(lp744
L-1944L
aL8L
aa(lp745
L-917L
aL1L
aa(lp746
L-208L
aL8L
aa(lp747
L-400L
aL8L
aa(lp748
L-1904L
aL8L
aa(lp749
L-1928L
aL8L
aa(lp750
L-384L
aL8L
aa(lp751
L-24L
aL8L
aa(lp752
L-376L
aL8L
aa(lp753
L-880L
aL8L
aa(lp754
L-192L
aL8L
aa(lp755
L-872L
aL8L
aa(lp756
L-276L
aL4L
aa(lp757
L-356L
aL4L
aa(lp758
L-352L
aL8L
aa(lp759
L-104L
aL4L
aa(lp760
L-856L
aL8L
aa(lp761
L-848L
aL4L
aa(lp762
L-272L
aL8L
aa(lp763
L-844L
aL4L
aa(lp764
L-840L
aL4L
aa(lp765
L-836L
aL4L
aa(lp766
L-832L
aL8L
aa(lp767
L-440L
aL8L
aa(lp768
L-824L
aL8L
aa(lp769
L-816L
aL8L
aa(lp770
L-864L
aL8L
aa(lp771
L-808L
aL8L
aa(lp772
L-288L
aL8L
aa(lp773
L-264L
aL8L
aa(lp774
L-796L
aL4L
aa(lp775
L-792L
aL4L
aa(lp776
L-788L
aL4L
aa(lp777
L-784L
aL8L
aa(lp778
L-432L
aL8L
aa(lp779
L-144L
aL8L
aa(lp780
L-16L
aL8L
aa(lp781
L-776L
aL8L
aa(lp782
L-152L
aL8L
aa(lp783
L-768L
aL8L
aa(lp784
L-344L
aL8L
aa(lp785
L-120L
aL8L
aa(lp786
L-760L
aL8L
aa(lp787
L-240L
aL8L
aa(lp788
L-256L
aL8L
aa(lp789
L-748L
aL4L
aa(lp790
L-96L
aL8L
aa(lp791
L-744L
aL8L
aa(lp792
L-168L
aL8L
aa(lp793
L-736L
aL8L
aa(lp794
L-1960L
aL8L
aa(lp795
L-728L
aL8L
aa(lp796
L-720L
aL8L
aa(lp797
L-80L
aL8L
aa(lp798
L-48L
aL4L
aa(lp799
L-712L
aL8L
aa(lp800
L-184L
aL8L
aa(lp801
L-704L
aL8L
aa(lp802
L-248L
aL8L
aa(lp803
L-696L
aL8L
aa(lp804
L-332L
aL4L
aa(lp805
L-688L
aL8L
aa(lp806
L-416L
aL8L
aa(lp807
L-680L
aL8L
aa(lp808
L-200L
aL8L
aa(lp809
L-672L
aL8L
aa(lp810
L-328L
aL4L
aa(lp811
L-664L
aL8L
aa(lp812
L-656L
aL8L
aa(lp813
L16L
aL4L
aa(lp814
L-648L
aL8L
aa(lp815
L-324L
aL4L
aa(lp816
L-640L
aL8L
aa(lp817
L-408L
aL8L
aa(lp818
L-632L
aL8L
aa(lp819
L-624L
aL8L
aa(lp820
L-320L
aL8L
aa(lp821
L-616L
aL8L
aa(lp822
L-97L
aL1L
aa(lp823
L-608L
aL8L
aa(lp824
L-232L
aL8L
aa(lp825
L-136L
aL8L
aa(lp826
L-600L
aL8L
aa(lp827
L-368L
aL8L
aa(lp828
L-86L
aL1L
aa(lp829
L-85L
aL1L
aa(lp830
L-84L
aL4L
aa(lp831
L-592L
aL8L
aa(lp832
L-912L
aL1L
aa(lp833
L-112L
aL8L
aa(lp834
L-1936L
aL8L
aa(lp835
L-580L
aL4L
aa(lp836
L-576L
aL8L
aa(lp837
L-312L
aL8L
aa(lp838
L-60L
aL4L
aa(lp839
L-568L
aL8L
aa(lp840
L-54L
aL1L
aa(lp841
L-53L
aL1L
aa(lp842
L-52L
aL4L
aa(lp843
L-560L
aL8L
aa(lp844
L-224L
aL8L
aa(lp845
L-44L
aL4L
aa(lp846
L-552L
aL8L
aa(lp847
L-36L
aL4L
aa(lp848
L-32L
aL8L
aa(lp849
L-392L
aL8L
aa(lp850
L-541L
aL1L
aa(lp851
L-540L
aL4L
aa(lp852
L-536L
aL8L
aa(lp853
L-528L
aL8L
aa(lp854
L-304L
aL8L
aa(lp855
L-520L
aL8L
aa(lp856
L-4L
aL4L
aa(lp857
L-512L
aL8L
aa(lp858
L-216L
aL8L
aa(lp859
L-504L
aL8L
aa(lp860
L-160L
aL8L
aa(lp861
L-496L
aL8L
aa(lp862
L-1920L
aL8L
aa(lp863
L8L
aL8L
aa(lp864
L-488L
aL8L
aa(lp865
L-480L
aL8L
aa(lp866
L-296L
aL8L
aa(lp867
L-40L
aL4L
aa(lp868
L-472L
aL8L
aa(lp869
L-176L
aL8L
aasS'close_stdout_set_file_name'
p870
(lp871
(lp872
L-8L
aL8L
aa(lp873
L8L
aL8L
aasS'parse_datetime'
p874
(lp875
(lp876
L-16L
aL8L
aa(lp877
L-56L
aL8L
aa(lp878
L-17L
aL1L
aa(lp879
L-48L
aL8L
aa(lp880
L-40L
aL8L
aa(lp881
L-8L
aL8L
aa(lp882
L8L
aL8L
aasS'isdst_differ'
p883
(lp884
(lp885
L-8L
aL4L
aa(lp886
L-4L
aL4L
aa(lp887
L8L
aL8L
aasS'save_abbr'
p888
(lp889
(lp890
L-48L
aL8L
aa(lp891
L-16L
aL8L
aa(lp892
L-40L
aL8L
aa(lp893
L-32L
aL8L
aa(lp894
L-8L
aL8L
aa(lp895
L8L
aL8L
aa(lp896
L-24L
aL8L
aasS'tm_year_str'
p897
(lp898
(lp899
L-16L
aL8L
aa(lp900
L-4L
aL4L
aa(lp901
L8L
aL8L
aasS'rpl_fseeko'
p902
(lp903
(lp904
L-8L
aL8L
aa(lp905
L-36L
aL4L
aa(lp906
L-32L
aL8L
aa(lp907
L8L
aL8L
aa(lp908
L-24L
aL8L
aasS'xnrealloc'
p909
(lp910
(lp911
L-24L
aL8L
aa(lp912
L-16L
aL8L
aa(lp913
L8L
aL8L
aa(lp914
L-8L
aL8L
aasS'lookup_word'
p915
(lp916
(lp917
L-64L
aL8L
aa(lp918
L-25L
aL1L
aa(lp919
L-56L
aL8L
aa(lp920
L-16L
aL8L
aa(lp921
L-24L
aL8L
aa(lp922
L-8L
aL8L
aa(lp923
L-41L
aL1L
aa(lp924
L-40L
aL8L
aa(lp925
L8L
aL8L
aasS'quote_mem'
p926
(lp927
(lp928
L-16L
aL8L
aa(lp929
L-8L
aL8L
aa(lp930
L8L
aL8L
aasS'_getopt_long_r'
p931
(lp932
(lp933
L-48L
aL8L
aa(lp934
L-16L
aL8L
aa(lp935
L-40L
aL8L
aa(lp936
L-4L
aL4L
aa(lp937
L-32L
aL8L
aa(lp938
L8L
aL8L
aa(lp939
L-24L
aL8L
aasS'quotearg_buffer_restyled'
p940
(lp941
(lp942
L-64L
aL1L
aa(lp943
L-63L
aL1L
aa(lp944
L-62L
aL1L
aa(lp945
L-61L
aL1L
aa(lp946
L-60L
aL1L
aa(lp947
L-59L
aL1L
aa(lp948
L-58L
aL1L
aa(lp949
L-57L
aL1L
aa(lp950
L-184L
aL4L
aa(lp951
L-180L
aL4L
aa(lp952
L-176L
aL8L
aa(lp953
L-40L
aL8L
aa(lp954
L-168L
aL8L
aa(lp955
L-160L
aL8L
aa(lp956
L-152L
aL8L
aa(lp957
L-56L
aL8L
aa(lp958
L-8L
aL8L
aa(lp959
L-132L
aL4L
aa(lp960
L-128L
aL8L
aa(lp961
L-32L
aL8L
aa(lp962
L-120L
aL8L
aa(lp963
L32L
aL8L
aa(lp964
L-112L
aL8L
aa(lp965
L24L
aL8L
aa(lp966
L-97L
aL1L
aa(lp967
L-96L
aL8L
aa(lp968
L-48L
aL8L
aa(lp969
L16L
aL8L
aa(lp970
L-81L
aL1L
aa(lp971
L-80L
aL8L
aa(lp972
L-24L
aL8L
aa(lp973
L8L
aL8L
aa(lp974
L-66L
aL1L
aa(lp975
L-65L
aL1L
aasS'posix_time_parse'
p976
(lp977
(lp978
L-32L
aL8L
aa(lp979
L-64L
aL4L
aa(lp980
L-24L
aL8L
aa(lp981
L-16L
aL8L
aa(lp982
L-84L
aL4L
aa(lp983
L-80L
aL8L
aa(lp984
L-40L
aL8L
aa(lp985
L-72L
aL8L
aa(lp986
L-8L
aL8L
aa(lp987
L8L
aL8L
aasS'get_stat_atime_ns'
p988
(lp989
(lp990
L-8L
aL8L
aa(lp991
L8L
aL8L
aasS'quotearg_buffer'
p992
(lp993
(lp994
L-48L
aL8L
aa(lp995
L-12L
aL4L
aa(lp996
L-72L
aL8L
aa(lp997
L-64L
aL8L
aa(lp998
L-40L
aL8L
aa(lp999
L-56L
aL8L
aa(lp1000
L-24L
aL8L
aa(lp1001
L-8L
aL8L
aa(lp1002
L8L
aL8L
aasS'debug_print_current_time'
p1003
(lp1004
(lp1005
L-224L
aL8L
aa(lp1006
L-96L
aL1L
aa(lp1007
L-216L
aL8L
aa(lp1008
L-64L
aL8L
aa(lp1009
L-52L
aL4L
aa(lp1010
L-208L
aL1L
aa(lp1011
L8L
aL8L
aa(lp1012
L-48L
aL8L
aa(lp1013
L-33L
aL1L
aasS'isdst_differ_0'
p1014
(lp1015
(lp1016
L-8L
aL4L
aa(lp1017
L-4L
aL4L
aa(lp1018
L8L
aL8L
aasS'exchange'
p1019
(lp1020
(lp1021
L-64L
aL8L
aa(lp1022
L-32L
aL8L
aa(lp1023
L-56L
aL8L
aa(lp1024
L-4L
aL4L
aa(lp1025
L-20L
aL4L
aa(lp1026
L-16L
aL4L
aa(lp1027
L-24L
aL4L
aa(lp1028
L-12L
aL4L
aa(lp1029
L-8L
aL4L
aa(lp1030
L8L
aL8L
aa(lp1031
L-36L
aL4L
aasS'time_zone_hhmm'
p1032
(lp1033
(lp1034
L-32L
aL8L
aa(lp1035
L16L
aL1L
aa(lp1036
L-24L
aL8L
aa(lp1037
L32L
aL8L
aa(lp1038
L-16L
aL8L
aa(lp1039
L8L
aL8L
aa(lp1040
L24L
aL8L
aa(lp1041
L-1L
aL1L
aasS'c_tolower'
p1042
(lp1043
(lp1044
L-4L
aL4L
aa(lp1045
L8L
aL8L
aasS'convert_time'
p1046
(lp1047
(lp1048
L-40L
aL8L
aa(lp1049
L-32L
aL8L
aa(lp1050
L-24L
aL8L
aa(lp1051
L-8L
aL8L
aa(lp1052
L8L
aL8L
aasS'frame_dummy'
p1053
(lp1054
(lp1055
L-3L
aL8L
aasS'rpl_vfprintf'
p1056
(lp1057
(lp1058
L-2032L
aL1L
aa(lp1059
L-16L
aL8L
aa(lp1060
L-2072L
aL8L
aa(lp1061
L-20L
aL4L
aa(lp1062
L-2064L
aL8L
aa(lp1063
L-2040L
aL8L
aa(lp1064
L-8L
aL8L
aa(lp1065
L8L
aL8L
aa(lp1066
L-2056L
aL8L
aasS'printf_parse'
p1067
(lp1068
(lp1069
L-144L
aL8L
aa(lp1070
L-80L
aL8L
aa(lp1071
L-264L
aL8L
aa(lp1072
L-16L
aL8L
aa(lp1073
L-256L
aL8L
aa(lp1074
L-248L
aL8L
aa(lp1075
L-120L
aL4L
aa(lp1076
L-116L
aL4L
aa(lp1077
L-24L
aL8L
aa(lp1078
L-112L
aL8L
aa(lp1079
L-96L
aL8L
aa(lp1080
L-232L
aL8L
aa(lp1081
L-32L
aL8L
aa(lp1082
L-224L
aL8L
aa(lp1083
L-136L
aL8L
aa(lp1084
L-216L
aL8L
aa(lp1085
L-40L
aL8L
aa(lp1086
L-208L
aL8L
aa(lp1087
L-48L
aL8L
aa(lp1088
L-200L
aL8L
aa(lp1089
L-192L
aL8L
aa(lp1090
L-88L
aL8L
aa(lp1091
L-184L
aL8L
aa(lp1092
L8L
aL8L
aa(lp1093
L-49L
aL1L
aa(lp1094
L-176L
aL8L
aa(lp1095
L-128L
aL8L
aa(lp1096
L-168L
aL8L
aa(lp1097
L-64L
aL8L
aa(lp1098
L-160L
aL8L
aa(lp1099
L-104L
aL8L
aa(lp1100
L-152L
aL8L
aa(lp1101
L-72L
aL8L
aa(lp1102
L-8L
aL8L
aasS'set_quoting_style'
p1103
(lp1104
(lp1105
L-12L
aL4L
aa(lp1106
L-8L
aL8L
aa(lp1107
L8L
aL8L
aasS'batch_convert'
p1108
(lp1109
(lp1110
L-112L
aL8L
aa(lp1111
L-80L
aL8L
aa(lp1112
L-104L
aL8L
aa(lp1113
L-48L
aL8L
aa(lp1114
L-32L
aL8L
aa(lp1115
L-96L
aL8L
aa(lp1116
L-72L
aL8L
aa(lp1117
L-56L
aL8L
aa(lp1118
L-88L
aL8L
aa(lp1119
L-40L
aL8L
aa(lp1120
L8L
aL8L
aa(lp1121
L-17L
aL1L
aasS'quotearg_n_options'
p1122
(lp1123
(lp1124
L-96L
aL8L
aa(lp1125
L-16L
aL8L
aa(lp1126
L-28L
aL4L
aa(lp1127
L-88L
aL8L
aa(lp1128
L-21L
aL1L
aa(lp1129
L-20L
aL4L
aa(lp1130
L-80L
aL8L
aa(lp1131
L-56L
aL8L
aa(lp1132
L-44L
aL4L
aa(lp1133
L-40L
aL8L
aa(lp1134
L-8L
aL8L
aa(lp1135
L-68L
aL4L
aa(lp1136
L8L
aL8L
aasS'locale_charset'
p1137
(lp1138
(lp1139
L-16L
aL8L
aa(lp1140
L-8L
aL8L
aa(lp1141
L8L
aL8L
aasS'__do_global_dtors_aux'
p1142
(lp1143
(lp1144
L-3L
aL8L
aasS'c_strcasecmp'
p1145
(lp1146
(lp1147
L-48L
aL8L
aa(lp1148
L-40L
aL8L
aa(lp1149
L8L
aL8L
aa(lp1150
L-18L
aL1L
aa(lp1151
L-17L
aL1L
aasS'quotearg_mem'
p1152
(lp1153
(lp1154
L-16L
aL8L
aa(lp1155
L-8L
aL8L
aa(lp1156
L8L
aL8L
aasS'__do_global_ctors_aux'
p1157
(lp1158
(lp1159
L8L
aL8L
aasS'revert_tz'
p1160
(lp1161
(lp1162
L-24L
aL8L
aa(lp1163
L-5L
aL1L
aa(lp1164
L-4L
aL4L
aa(lp1165
L8L
aL8L
aasS'xmalloc'
p1166
(lp1167
(lp1168
L-24L
aL8L
aa(lp1169
L-8L
aL8L
aa(lp1170
L8L
aL8L
aasS'get_stat_atime'
p1171
(lp1172
(lp1173
L-8L
aL8L
aa(lp1174
L8L
aL8L
aasS'quotearg_custom'
p1175
(lp1176
(lp1177
L-24L
aL8L
aa(lp1178
L-16L
aL8L
aa(lp1179
L8L
aL8L
aa(lp1180
L-8L
aL8L
aasS'fwrite_lowcase'
p1181
(lp1182
(lp1183
L-24L
aL8L
aa(lp1184
L-16L
aL8L
aa(lp1185
L8L
aL8L
aa(lp1186
L-8L
aL8L
aasS'set_custom_quoting'
p1187
(lp1188
(lp1189
L-24L
aL8L
aa(lp1190
L-16L
aL8L
aa(lp1191
L8L
aL8L
aa(lp1192
L-8L
aL8L
aasS'rpl_fclose'
p1193
(lp1194
(lp1195
L-24L
aL8L
aa(lp1196
L8L
aL8L
aa(lp1197
L-12L
aL4L
aa(lp1198
L-8L
aL4L
aa(lp1199
L-4L
aL4L
aasS'register_tm_clones'
p1200
(lp1201
(lp1202
L-3L
aL8L
aasS'to_tm_year'
p1203
(lp1204
(lp1205
L-48L
aL8L
aa(lp1206
L32L
aL8L
aa(lp1207
L24L
aL8L
aa(lp1208
L-36L
aL1L
aa(lp1209
L8L
aL8L
aa(lp1210
L-24L
aL8L
aasS'show_date'
p1211
(lp1212
(lp1213
L-144L
aL8L
aa(lp1214
L-112L
aL1L
aa(lp1215
L-136L
aL8L
aa(lp1216
L-80L
aL1L
aa(lp1217
L-128L
aL8L
aa(lp1218
L8L
aL8L
aa(lp1219
L-120L
aL8L
aasS'yydestruct'
p1220
(lp1221
(lp1222
L-32L
aL8L
aa(lp1223
L-24L
aL8L
aa(lp1224
L8L
aL8L
aa(lp1225
L-12L
aL4L
aa(lp1226
L-8L
aL8L
aasS'argmatch_invalid'
p1227
(lp1228
(lp1229
L-56L
aL8L
aa(lp1230
L-48L
aL8L
aa(lp1231
L8L
aL8L
aa(lp1232
L-24L
aL8L
aa(lp1233
L-40L
aL8L
aasS'imaxtostr'
p1234
(lp1235
(lp1236
L-32L
aL8L
aa(lp1237
L-24L
aL8L
aa(lp1238
L8L
aL8L
aa(lp1239
L-8L
aL8L
aasS'get_charset_aliases'
p1240
(lp1241
(lp1242
L-256L
aL1L
aa(lp1243
L-192L
aL1L
aa(lp1244
L-32L
aL8L
aa(lp1245
L-92L
aL4L
aa(lp1246
L-120L
aL8L
aa(lp1247
L-128L
aL8L
aa(lp1248
L-16L
aL8L
aa(lp1249
L-48L
aL8L
aa(lp1250
L-40L
aL8L
aa(lp1251
L-112L
aL8L
aa(lp1252
L-88L
aL8L
aa(lp1253
L-8L
aL8L
aa(lp1254
L-76L
aL4L
aa(lp1255
L-104L
aL8L
aa(lp1256
L-60L
aL4L
aa(lp1257
L-72L
aL8L
aa(lp1258
L-56L
aL8L
aa(lp1259
L-24L
aL8L
aa(lp1260
L8L
aL8L
aasS'c_isxdigit'
p1261
(lp1262
(lp1263
L-4L
aL4L
aa(lp1264
L8L
aL8L
aasS'quote_n'
p1265
(lp1266
(lp1267
L-16L
aL8L
aa(lp1268
L-4L
aL4L
aa(lp1269
L8L
aL8L
aasS'ranged_convert'
p1270
(lp1271
(lp1272
L-32L
aL8L
aa(lp1273
L-16L
aL8L
aa(lp1274
L-56L
aL8L
aa(lp1275
L-48L
aL8L
aa(lp1276
L-24L
aL8L
aa(lp1277
L-8L
aL8L
aa(lp1278
L-40L
aL8L
aa(lp1279
L8L
aL8L
aasS'version_etc_arn'
p1280
(lp1281
(lp1282
L-128L
aL8L
aa(lp1283
L-96L
aL8L
aa(lp1284
L-80L
aL8L
aa(lp1285
L-120L
aL8L
aa(lp1286
L-64L
aL8L
aa(lp1287
L-112L
aL8L
aa(lp1288
L-88L
aL8L
aa(lp1289
L-72L
aL8L
aa(lp1290
L-104L
aL8L
aa(lp1291
L-56L
aL8L
aa(lp1292
L8L
aL8L
aasS'tzalloc'
p1293
(lp1294
(lp1295
L-16L
aL8L
aa(lp1296
L-40L
aL8L
aa(lp1297
L8L
aL8L
aa(lp1298
L-8L
aL8L
aa(lp1299
L-24L
aL8L
aasS'process_long_option'
p1300
(lp1301
(lp1302
L-96L
aL8L
aa(lp1303
L-80L
aL8L
aa(lp1304
L24L
aL4L
aa(lp1305
L-60L
aL4L
aa(lp1306
L-32L
aL8L
aa(lp1307
L-120L
aL8L
aa(lp1308
L-64L
aL4L
aa(lp1309
L32L
aL8L
aa(lp1310
L-84L
aL4L
aa(lp1311
L-48L
aL4L
aa(lp1312
L-112L
aL8L
aa(lp1313
L-88L
aL4L
aa(lp1314
L16L
aL8L
aa(lp1315
L-44L
aL4L
aa(lp1316
L-24L
aL8L
aa(lp1317
L-104L
aL8L
aa(lp1318
L-56L
aL8L
aa(lp1319
L8L
aL8L
aa(lp1320
L-68L
aL4L
aa(lp1321
L-40L
aL8L
aasS'long_int_avg'
p1322
(lp1323
(lp1324
L-24L
aL8L
aa(lp1325
L-16L
aL8L
aa(lp1326
L8L
aL8L
aasS'xsum4'
p1327
(lp1328
(lp1329
L-32L
aL8L
aa(lp1330
L-24L
aL8L
aa(lp1331
L-16L
aL8L
aa(lp1332
L8L
aL8L
aa(lp1333
L-8L
aL8L
aasS'__xargmatch_internal'
p1334
(lp1335
(lp1336
L-64L
aL8L
aa(lp1337
L-32L
aL8L
aa(lp1338
L-56L
aL8L
aa(lp1339
L-48L
aL8L
aa(lp1340
L-24L
aL8L
aa(lp1341
L-8L
aL8L
aa(lp1342
L-40L
aL8L
aa(lp1343
L8L
aL8L
aasS'yyparse'
p1344
(lp1345
(lp1346
L-160L
aL8L
aa(lp1347
L-96L
aL8L
aa(lp1348
L-8L
aL8L
aa(lp1349
L-28L
aL4L
aa(lp1350
L-1432L
aL8L
aa(lp1351
L-20L
aL4L
aa(lp1352
L-144L
aL8L
aa(lp1353
L-136L
aL8L
aa(lp1354
L-48L
aL8L
aa(lp1355
L-1416L
aL8L
aa(lp1356
L-1408L
aL8L
aa(lp1357
L-112L
aL8L
aa(lp1358
L-24L
aL4L
aa(lp1359
L-1400L
aL8L
aa(lp1360
L-1392L
aL8L
aa(lp1361
L-152L
aL8L
aa(lp1362
L-32L
aL4L
aa(lp1363
L-64L
aL8L
aa(lp1364
L-104L
aL8L
aa(lp1365
L-1376L
aL8L
aa(lp1366
L-128L
aL8L
aa(lp1367
L-40L
aL8L
aa(lp1368
L-88L
aL4L
aa(lp1369
L-240L
aL1L
aa(lp1370
L-84L
aL4L
aa(lp1371
L-1360L
aL1L
aa(lp1372
L-1384L
aL8L
aa(lp1373
L-80L
aL4L
aa(lp1374
L-76L
aL4L
aa(lp1375
L-72L
aL8L
aa(lp1376
L-192L
aL8L
aa(lp1377
L-1424L
aL8L
aa(lp1378
L8L
aL8L
aa(lp1379
L-56L
aL8L
aa(lp1380
L-184L
aL8L
aa(lp1381
L-176L
aL8L
aa(lp1382
L-120L
aL8L
aa(lp1383
L-168L
aL8L
aasS'argmatch_to_argument'
p1384
(lp1385
(lp1386
L-48L
aL8L
aa(lp1387
L-32L
aL8L
aa(lp1388
L-40L
aL8L
aa(lp1389
L-8L
aL8L
aa(lp1390
L8L
aL8L
aa(lp1391
L-24L
aL8L
aasS'set_char_quoting'
p1392
(lp1393
(lp1394
L-48L
aL4L
aa(lp1395
L-16L
aL8L
aa(lp1396
L-44L
aL1L
aa(lp1397
L-40L
aL8L
aa(lp1398
L-1L
aL1L
aa(lp1399
L8L
aL8L
aa(lp1400
L-24L
aL4L
aa(lp1401
L-20L
aL4L
aasS'xsum3'
p1402
(lp1403
(lp1404
L-24L
aL8L
aa(lp1405
L-16L
aL8L
aa(lp1406
L8L
aL8L
aa(lp1407
L-8L
aL8L
aasS'quotearg_n_custom_mem'
p1408
(lp1409
(lp1410
L-80L
aL8L
aa(lp1411
L-64L
aL8L
aa(lp1412
L-16L
aL8L
aa(lp1413
L-104L
aL8L
aa(lp1414
L-48L
aL8L
aa(lp1415
L-68L
aL4L
aa(lp1416
L-32L
aL8L
aa(lp1417
L-96L
aL8L
aa(lp1418
L-56L
aL8L
aa(lp1419
L8L
aL8L
aa(lp1420
L-88L
aL8L
aa(lp1421
L-40L
aL8L
aa(lp1422
L-24L
aL8L
aasS'quotearg_style_mem'
p1423
(lp1424
(lp1425
L-24L
aL8L
aa(lp1426
L-16L
aL8L
aa(lp1427
L-4L
aL4L
aa(lp1428
L8L
aL8L
aasS'emit_bug_reporting_address'
p1429
(lp1430
(lp1431
L8L
aL8L
aasS'_getopt_initialize'
p1432
(lp1433
(lp1434
L-32L
aL8L
aa(lp1435
L-24L
aL8L
aa(lp1436
L-16L
aL8L
aa(lp1437
L8L
aL8L
aa(lp1438
L-8L
aL4L
aa(lp1439
L-4L
aL4L
aasS'rpl_getopt_long_only'
p1440
(lp1441
(lp1442
L-24L
aL8L
aa(lp1443
L8L
aL8L
aa(lp1444
L-16L
aL8L
aa(lp1445
L-40L
aL8L
aa(lp1446
L-4L
aL4L
aa(lp1447
L-32L
aL8L
aasS'leapyear'
p1448
(lp1449
(lp1450
L-8L
aL8L
aa(lp1451
L8L
aL8L
aasS'quotearg_style'
p1452
(lp1453
(lp1454
L-16L
aL8L
aa(lp1455
L-4L
aL4L
aa(lp1456
L8L
aL8L
aasS'to_hour'
p1457
(lp1458
(lp1459
L-12L
aL4L
aa(lp1460
L-8L
aL8L
aa(lp1461
L8L
aL8L
aasS'rpl_getopt_long'
p1462
(lp1463
(lp1464
L-24L
aL8L
aa(lp1465
L8L
aL8L
aa(lp1466
L-16L
aL8L
aa(lp1467
L-40L
aL8L
aa(lp1468
L-4L
aL4L
aa(lp1469
L-32L
aL8L
aasS'mktime_z'
p1470
(lp1471
(lp1472
L-96L
aL8L
aa(lp1473
L-80L
aL56L
aa(lp1474
L-88L
aL8L
aa(lp1475
L-16L
aL8L
aa(lp1476
L-24L
aL8L
aa(lp1477
L-8L
aL8L
aa(lp1478
L8L
aL8L
aasS'clone_quoting_options'
p1479
(lp1480
(lp1481
L-24L
aL8L
aa(lp1482
L-16L
aL8L
aa(lp1483
L-4L
aL4L
aa(lp1484
L8L
aL8L
aasS'quotearg_n_style_colon'
p1485
(lp1486
(lp1487
L-144L
aL8L
aa(lp1488
L-112L
aL8L
aa(lp1489
L-48L
aL8L
aa(lp1490
L-96L
aL8L
aa(lp1491
L-136L
aL8L
aa(lp1492
L-80L
aL8L
aa(lp1493
L-16L
aL8L
aa(lp1494
L-68L
aL4L
aa(lp1495
L-64L
aL8L
aa(lp1496
L-128L
aL8L
aa(lp1497
L-104L
aL8L
aa(lp1498
L-24L
aL8L
aa(lp1499
L-32L
aL8L
aa(lp1500
L-40L
aL8L
aa(lp1501
L-120L
aL8L
aa(lp1502
L-72L
aL4L
aa(lp1503
L8L
aL8L
aa(lp1504
L-56L
aL8L
aasS'quotearg_n_mem'
p1505
(lp1506
(lp1507
L-24L
aL8L
aa(lp1508
L-16L
aL8L
aa(lp1509
L-4L
aL4L
aa(lp1510
L8L
aL8L
aasS'set_quoting_flags'
p1511
(lp1512
(lp1513
L-28L
aL4L
aa(lp1514
L-4L
aL4L
aa(lp1515
L-24L
aL8L
aa(lp1516
L8L
aL8L
aasS'to_uchar'
p1517
(lp1518
(lp1519
L-4L
aL1L
aa(lp1520
L8L
aL8L
aasS'memcpy_lowcase'
p1521
(lp1522
(lp1523
L-24L
aL8L
aa(lp1524
L-16L
aL8L
aa(lp1525
L8L
aL8L
aa(lp1526
L-8L
aL8L
aasS'rpl_mbrtowc'
p1527
(lp1528
(lp1529
L-48L
aL8L
aa(lp1530
L-16L
aL1L
aa(lp1531
L-9L
aL1L
aa(lp1532
L-40L
aL8L
aa(lp1533
L-32L
aL8L
aa(lp1534
L-8L
aL8L
aa(lp1535
L8L
aL8L
aa(lp1536
L-24L
aL8L
aasS'fseterr'
p1537
(lp1538
(lp1539
L-8L
aL8L
aa(lp1540
L8L
aL8L
aasS'bad_cast'
p1541
(lp1542
(lp1543
L-8L
aL8L
aa(lp1544
L8L
aL8L
aasS'fwrite_uppcase'
p1545
(lp1546
(lp1547
L-24L
aL8L
aa(lp1548
L-16L
aL8L
aa(lp1549
L8L
aL8L
aa(lp1550
L-8L
aL8L
aasS'version_etc'
p1551
(lp1552
(lp1553
L-240L
aL8L
aa(lp1554
L16L
aL1L
aa(lp1555
L-232L
aL8L
aa(lp1556
L-112L
aL16L
aa(lp1557
L-48L
aL16L
aa(lp1558
L-224L
aL8L
aa(lp1559
L-216L
aL8L
aa(lp1560
L-80L
aL16L
aa(lp1561
L-128L
aL16L
aa(lp1562
L-200L
aL4L
aa(lp1563
L-64L
aL16L
aa(lp1564
L-196L
aL4L
aa(lp1565
L-192L
aL8L
aa(lp1566
L-184L
aL8L
aa(lp1567
L-176L
aL1L
aa(lp1568
L-144L
aL8L
aa(lp1569
L-32L
aL16L
aa(lp1570
L-16L
aL16L
aa(lp1571
L-96L
aL16L
aa(lp1572
L-136L
aL8L
aa(lp1573
L8L
aL8L
aasS'c_isalnum'
p1574
(lp1575
(lp1576
L-4L
aL4L
aa(lp1577
L8L
aL8L
aasS'fprintftime'
p1578
(lp1579
(lp1580
L-40L
aL8L
aa(lp1581
L8L
aL8L
aa(lp1582
L-1L
aL1L
aa(lp1583
L-32L
aL8L
aa(lp1584
L-24L
aL8L
aa(lp1585
L-52L
aL4L
aa(lp1586
L-48L
aL8L
aasS'argmatch_valid'
p1587
(lp1588
(lp1589
L-32L
aL8L
aa(lp1590
L-56L
aL8L
aa(lp1591
L-48L
aL8L
aa(lp1592
L-24L
aL8L
aa(lp1593
L-40L
aL8L
aa(lp1594
L8L
aL8L
aasS'nstrftime'
p1595
(lp1596
(lp1597
L-32L
aL8L
aa(lp1598
L-60L
aL4L
aa(lp1599
L-56L
aL8L
aa(lp1600
L-48L
aL8L
aa(lp1601
L-24L
aL8L
aa(lp1602
L-40L
aL8L
aa(lp1603
L8L
aL8L
aa(lp1604
L-1L
aL1L
aasS'posixtime'
p1605
(lp1606
(lp1607
L-80L
aL4L
aa(lp1608
L-16L
aL8L
aa(lp1609
L-76L
aL4L
aa(lp1610
L-72L
aL4L
aa(lp1611
L-196L
aL4L
aa(lp1612
L-192L
aL8L
aa(lp1613
L-60L
aL4L
aa(lp1614
L-184L
aL8L
aa(lp1615
L-176L
aL1L
aa(lp1616
L-160L
aL1L
aa(lp1617
L-8L
aL8L
aa(lp1618
L-152L
aL8L
aa(lp1619
L-144L
aL4L
aa(lp1620
L-140L
aL4L
aa(lp1621
L-136L
aL4L
aa(lp1622
L-68L
aL4L
aa(lp1623
L-132L
aL4L
aa(lp1624
L-128L
aL4L
aa(lp1625
L-124L
aL4L
aa(lp1626
L8L
aL8L
aa(lp1627
L-112L
aL4L
aa(lp1628
L-64L
aL4L
aasS'parse_datetime2'
p1629
(lp1630
(lp1631
L-1344L
aL8L
aa(lp1632
L-832L
aL8L
aa(lp1633
L-824L
aL8L
aa(lp1634
L-816L
aL1L
aa(lp1635
L-815L
aL1L
aa(lp1636
L-1324L
aL4L
aa(lp1637
L-1320L
aL8L
aa(lp1638
L-1312L
aL8L
aa(lp1639
L-144L
aL8L
aa(lp1640
L-284L
aL4L
aa(lp1641
L-320L
aL4L
aa(lp1642
L-1304L
aL8L
aa(lp1643
L-276L
aL4L
aa(lp1644
L-64L
aL8L
aa(lp1645
L-1296L
aL56L
aa(lp1646
L-1336L
aL8L
aa(lp1647
L-268L
aL4L
aa(lp1648
L-776L
aL8L
aa(lp1649
L-768L
aL8L
aa(lp1650
L-760L
aL1L
aa(lp1651
L-759L
aL1L
aa(lp1652
L-758L
aL1L
aa(lp1653
L-757L
aL1L
aa(lp1654
L-756L
aL1L
aa(lp1655
L-755L
aL1L
aa(lp1656
L-754L
aL1L
aa(lp1657
L-753L
aL1L
aa(lp1658
L-752L
aL1L
aa(lp1659
L-744L
aL8L
aa(lp1660
L-220L
aL4L
aa(lp1661
L-232L
aL8L
aa(lp1662
L-736L
aL4L
aa(lp1663
L-48L
aL8L
aa(lp1664
L-222L
aL1L
aa(lp1665
L-221L
aL1L
aa(lp1666
L-732L
aL4L
aa(lp1667
L-352L
aL4L
aa(lp1668
L-728L
aL8L
aa(lp1669
L-96L
aL8L
aa(lp1670
L-1232L
aL1L
aa(lp1671
L-216L
aL8L
aa(lp1672
L-716L
aL4L
aa(lp1673
L-712L
aL8L
aa(lp1674
L-192L
aL8L
aa(lp1675
L-384L
aL1L
aa(lp1676
L-184L
aL8L
aa(lp1677
L-1200L
aL4L
aa(lp1678
L-808L
aL8L
aa(lp1679
L-684L
aL4L
aa(lp1680
L-1192L
aL8L
aa(lp1681
L-676L
aL4L
aa(lp1682
L-161L
aL1L
aa(lp1683
L-1184L
aL8L
aa(lp1684
L-720L
aL4L
aa(lp1685
L-668L
aL4L
aa(lp1686
L-128L
aL8L
aa(lp1687
L-145L
aL1L
aa(lp1688
L-656L
aL4L
aa(lp1689
L-136L
aL8L
aa(lp1690
L-204L
aL4L
aa(lp1691
L-33L
aL1L
aa(lp1692
L-640L
aL8L
aa(lp1693
L-800L
aL8L
aa(lp1694
L-117L
aL1L
aa(lp1695
L-116L
aL4L
aa(lp1696
L-624L
aL1L
aa(lp1697
L-200L
aL8L
aa(lp1698
L-280L
aL4L
aa(lp1699
L-1128L
aL8L
aa(lp1700
L-101L
aL1L
aa(lp1701
L-100L
aL4L
aa(lp1702
L-608L
aL1L
aa(lp1703
L-112L
aL8L
aa(lp1704
L-1112L
aL8L
aa(lp1705
L-160L
aL8L
aa(lp1706
L-1104L
aL8L
aa(lp1707
L-792L
aL8L
aa(lp1708
L-1096L
aL8L
aa(lp1709
L-1088L
aL8L
aa(lp1710
L-1080L
aL8L
aa(lp1711
L-176L
aL8L
aa(lp1712
L-1072L
aL8L
aa(lp1713
L-56L
aL8L
aa(lp1714
L-1057L
aL1L
aa(lp1715
L-784L
aL8L
aa(lp1716
L-1044L
aL4L
aa(lp1717
L-1040L
aL4L
aa(lp1718
L-1036L
aL4L
aa(lp1719
L-1032L
aL8L
aa(lp1720
L-1024L
aL1L
aa(lp1721
L-1023L
aL1L
aa(lp1722
L-1022L
aL1L
aa(lp1723
L8L
aL8L
aa(lp1724
L-208L
aL4L
aa(lp1725
L-496L
aL1L
aa(lp1726
L-264L
aL4L
aa(lp1727
L-88L
aL8L
aa(lp1728
L-992L
aL8L
aa(lp1729
L-688L
aL4L
aa(lp1730
L-984L
aL8L
aa(lp1731
L-976L
aL8L
aa(lp1732
L-344L
aL4L
aa(lp1733
L-968L
aL8L
aa(lp1734
L-960L
aL4L
aa(lp1735
L-256L
aL4L
aa(lp1736
L-1120L
aL8L
aa(lp1737
L-80L
aL8L
aa(lp1738
L-956L
aL4L
aa(lp1739
L-952L
aL4L
aa(lp1740
L-948L
aL4L
aa(lp1741
L-944L
aL8L
aa(lp1742
L-680L
aL4L
aa(lp1743
L-936L
aL8L
aa(lp1744
L-928L
aL8L
aa(lp1745
L-336L
aL4L
aa(lp1746
L-920L
aL8L
aa(lp1747
L-912L
aL8L
aa(lp1748
L-248L
aL8L
aa(lp1749
L-904L
aL8L
aa(lp1750
L-896L
aL8L
aa(lp1751
L-672L
aL4L
aa(lp1752
L-272L
aL4L
aa(lp1753
L-888L
aL8L
aa(lp1754
L-880L
aL8L
aa(lp1755
L-72L
aL8L
aa(lp1756
L-872L
aL8L
aa(lp1757
L-864L
aL8L
aa(lp1758
L-348L
aL4L
aa(lp1759
L-288L
aL4L
aa(lp1760
L-856L
aL8L
aa(lp1761
L-340L
aL4L
aa(lp1762
L-848L
aL8L
aa(lp1763
L-332L
aL4L
aa(lp1764
L-840L
aL8L
aasS'rpl_timegm'
p1765
(lp1766
(lp1767
L-8L
aL8L
aa(lp1768
L8L
aL8L
aasS'quotearg_n_style'
p1769
(lp1770
(lp1771
L-80L
aL8L
aa(lp1772
L-72L
aL4L
aa(lp1773
L-68L
aL4L
aa(lp1774
L-64L
aL1L
aa(lp1775
L8L
aL8L
aasS'xzalloc'
p1776
(lp1777
(lp1778
L-8L
aL8L
aa(lp1779
L8L
aL8L
aasS'c_isascii'
p1780
(lp1781
(lp1782
L-4L
aL4L
aa(lp1783
L8L
aL8L
aasS'get_stat_mtime_ns'
p1784
(lp1785
(lp1786
L-8L
aL8L
aa(lp1787
L8L
aL8L
aasS'dbg_printf'
p1788
(lp1789
(lp1790
L-96L
aL16L
aa(lp1791
L-32L
aL16L
aa(lp1792
L-216L
aL8L
aa(lp1793
L-80L
aL16L
aa(lp1794
L-200L
aL4L
aa(lp1795
L-196L
aL4L
aa(lp1796
L-192L
aL8L
aa(lp1797
L-112L
aL16L
aa(lp1798
L-184L
aL8L
aa(lp1799
L-48L
aL16L
aa(lp1800
L-176L
aL1L
aa(lp1801
L-168L
aL8L
aa(lp1802
L-160L
aL8L
aa(lp1803
L-64L
aL16L
aa(lp1804
L-152L
aL8L
aa(lp1805
L-128L
aL16L
aa(lp1806
L-144L
aL8L
aa(lp1807
L-136L
aL8L
aa(lp1808
L-16L
aL16L
aa(lp1809
L8L
aL8L
aa(lp1810
L16L
aL1L
aasS'gettext_quote'
p1811
(lp1812
(lp1813
L-28L
aL4L
aa(lp1814
L-24L
aL8L
aa(lp1815
L-16L
aL8L
aa(lp1816
L8L
aL8L
aa(lp1817
L-8L
aL8L
aasS'get_stat_ctime_ns'
p1818
(lp1819
(lp1820
L-8L
aL8L
aa(lp1821
L8L
aL8L
aasS'iso_week_days_0'
p1822
(lp1823
(lp1824
L-24L
aL4L
aa(lp1825
L-4L
aL4L
aa(lp1826
L-20L
aL4L
aa(lp1827
L8L
aL8L
aasS'setenv_TZ'
p1828
(lp1829
(lp1830
L-8L
aL8L
aa(lp1831
L8L
aL8L
aasS'lookup_zone'
p1832
(lp1833
(lp1834
L-32L
aL8L
aa(lp1835
L-24L
aL8L
aa(lp1836
L8L
aL8L
aa(lp1837
L-8L
aL8L
aasS'xstrdup'
p1838
(lp1839
(lp1840
L-8L
aL8L
aa(lp1841
L8L
aL8L
aasS'__libc_csu_init'
p1842
(lp1843
sS'extend_abbrs'
p1844
(lp1845
(lp1846
L-24L
aL8L
aa(lp1847
L-16L
aL8L
aa(lp1848
L8L
aL8L
aa(lp1849
L-8L
aL8L
aasS'rpl_mktime'
p1850
(lp1851
(lp1852
L-8L
aL8L
aa(lp1853
L8L
aL8L
aasS'xcharalloc'
p1854
(lp1855
(lp1856
L-8L
aL8L
aa(lp1857
L8L
aL8L
aasS'apply_relative_time'
p1858
(lp1859
(lp1860
L-12L
aL4L
aa(lp1861
L56L
aL8L
aa(lp1862
L-8L
aL8L
aa(lp1863
L32L
aL8L
aa(lp1864
L48L
aL8L
aa(lp1865
L64L
aL4L
aa(lp1866
L8L
aL8L
aa(lp1867
L24L
aL8L
aa(lp1868
L16L
aL8L
aa(lp1869
L40L
aL8L
aasS'decimal_point_char'
p1870
(lp1871
(lp1872
L-8L
aL8L
aa(lp1873
L8L
aL8L
aasS'quotearg_colon_mem'
p1874
(lp1875
(lp1876
L-16L
aL8L
aa(lp1877
L-8L
aL8L
aa(lp1878
L8L
aL8L
aasS'_getopt_long_only_r'
p1879
(lp1880
(lp1881
L-48L
aL8L
aa(lp1882
L-16L
aL8L
aa(lp1883
L-40L
aL8L
aa(lp1884
L-4L
aL4L
aa(lp1885
L-32L
aL8L
aa(lp1886
L8L
aL8L
aa(lp1887
L-24L
aL8L
aasS'timetostr'
p1888
(lp1889
(lp1890
L-16L
aL8L
aa(lp1891
L-8L
aL8L
aa(lp1892
L8L
aL8L
aasS'set_tz'
p1893
(lp1894
(lp1895
L-16L
aL8L
aa(lp1896
L-40L
aL8L
aa(lp1897
L-8L
aL8L
aa(lp1898
L8L
aL8L
aa(lp1899
L-20L
aL4L
aasS'quote'
p1900
(lp1901
(lp1902
L-8L
aL8L
aa(lp1903
L8L
aL8L
aasS'get_stat_birthtime_ns'
p1904
(lp1905
(lp1906
L-8L
aL8L
aa(lp1907
L8L
aL8L
aasS'__libc_csu_fini'
p1908
(lp1909
(lp1910
L-3L
aL8L
aasS'rpl_getopt_internal'
p1911
(lp1912
(lp1913
L-32L
aL8L
aa(lp1914
L-56L
aL8L
aa(lp1915
L16L
aL4L
aa(lp1916
L-20L
aL4L
aa(lp1917
L-48L
aL8L
aa(lp1918
L-24L
aL4L
aa(lp1919
L-40L
aL8L
aa(lp1920
L8L
aL8L
aa(lp1921
L-4L
aL4L
aasS'get_stat_birthtime'
p1922
(lp1923
(lp1924
L-24L
aL8L
aa(lp1925
L-16L
aL8L
aa(lp1926
L8L
aL8L
aa(lp1927
L-8L
aL8L
aasS'x2realloc'
p1928
(lp1929
(lp1930
L-16L
aL8L
aa(lp1931
L-8L
aL8L
aa(lp1932
L8L
aL8L
aasS'quotearg_colon'
p1933
(lp1934
(lp1935
L-8L
aL8L
aa(lp1936
L8L
aL8L
aasS'c_isgraph'
p1937
(lp1938
(lp1939
L-4L
aL4L
aa(lp1940
L8L
aL8L
aasS'deregister_tm_clones'
p1941
(lp1942
(lp1943
L-3L
aL8L
aasS'change_env'
p1944
(lp1945
(lp1946
L-8L
aL8L
aa(lp1947
L8L
aL8L
aasS'emit_ancillary_info'
p1948
(lp1949
(lp1950
L-144L
aL8L
aa(lp1951
L-128L
aL8L
aa(lp1952
L-24L
aL8L
aa(lp1953
L-64L
aL8L
aa(lp1954
L-56L
aL8L
aa(lp1955
L-80L
aL8L
aa(lp1956
L-168L
aL8L
aa(lp1957
L-112L
aL8L
aa(lp1958
L-32L
aL8L
aa(lp1959
L-96L
aL8L
aa(lp1960
L-160L
aL8L
aa(lp1961
L-136L
aL8L
aa(lp1962
L-72L
aL8L
aa(lp1963
L-120L
aL8L
aa(lp1964
L-152L
aL8L
aa(lp1965
L-104L
aL8L
aa(lp1966
L-40L
aL8L
aa(lp1967
L8L
aL8L
aa(lp1968
L-88L
aL8L
aasS'rpl_getopt'
p1969
(lp1970
(lp1971
L-24L
aL8L
aa(lp1972
L-16L
aL8L
aa(lp1973
L-4L
aL4L
aa(lp1974
L8L
aL8L
aasS'xcalloc'
p1975
(lp1976
(lp1977
L-32L
aL8L
aa(lp1978
L-24L
aL8L
aa(lp1979
L8L
aL8L
aa(lp1980
L-8L
aL8L
aasS'c_isprint'
p1981
(lp1982
(lp1983
L-4L
aL4L
aa(lp1984
L8L
aL8L
aasS'quotearg_n'
p1985
(lp1986
(lp1987
L-16L
aL8L
aa(lp1988
L-4L
aL4L
aa(lp1989
L8L
aL8L
aasS'quotearg_custom_mem'
p1990
(lp1991
(lp1992
L-32L
aL8L
aa(lp1993
L-24L
aL8L
aa(lp1994
L-16L
aL8L
aa(lp1995
L8L
aL8L
aa(lp1996
L-8L
aL8L
aasS'c_islower'
p1997
(lp1998
(lp1999
L-4L
aL4L
aa(lp2000
L8L
aL8L
aasS'gettime'
p2001
(lp2002
(lp2003
L-24L
aL8L
aa(lp2004
L-16L
aL16L
aa(lp2005
L8L
aL8L
aasS'rpl_fflush'
p2006
(lp2007
(lp2008
L-8L
aL8L
aa(lp2009
L8L
aL8L
aasS'c_isblank'
p2010
(lp2011
(lp2012
L-4L
aL4L
aa(lp2013
L8L
aL8L
aasS'localtime_rz'
p2014
(lp2015
(lp2016
L-9L
aL1L
aa(lp2017
L-40L
aL8L
aa(lp2018
L-32L
aL8L
aa(lp2019
L-8L
aL8L
aa(lp2020
L8L
aL8L
aa(lp2021
L-24L
aL8L
aasS'clear_ungetc_buffer_preserving_position'
p2022
(lp2023
(lp2024
L-8L
aL8L
aa(lp2025
L8L
aL8L
aasS'debug_strftime'
p2026
(lp2027
(lp2028
L-16L
aL8L
aa(lp2029
L-8L
aL8L
aa(lp2030
L-20L
aL4L
aa(lp2031
L8L
aL8L
aasS'memcpy_uppcase'
p2032
(lp2033
(lp2034
L-24L
aL8L
aa(lp2035
L-16L
aL8L
aa(lp2036
L8L
aL8L
aa(lp2037
L-8L
aL8L
aas.