(dp0
S'build_sifted_states'
p1
(lp2
(lp3
L-96L
aL8L
aa(lp4
L-80L
aL8L
aa(lp5
L-88L
aL8L
aa(lp6
L-32L
aL8L
aa(lp7
L-49L
aL1L
aa(lp8
L-48L
aL8L
aa(lp9
L-40L
aL8L
aa(lp10
L-12L
aL4L
aa(lp11
L8L
aL8L
aa(lp12
L-72L
aL8L
aa(lp13
L-24L
aL8L
aa(lp14
L-8L
aL8L
aasS'close_stdout_set_ignore_EPIPE'
p15
(lp16
(lp17
L-4L
aL1L
aa(lp18
L8L
aL8L
aasS'xnmalloc'
p19
(lp20
(lp21
L-16L
aL8L
aa(lp22
L-8L
aL8L
aa(lp23
L8L
aL8L
aasS'version_etc_va'
p24
(lp25
(lp26
L-112L
aL8L
aa(lp27
L-96L
aL8L
aa(lp28
L8L
aL8L
aa(lp29
L-136L
aL8L
aa(lp30
L-128L
aL8L
aa(lp31
L-104L
aL8L
aa(lp32
L-120L
aL8L
aa(lp33
L-8L
aL8L
aasS'optimize_subexps'
p34
(lp35
(lp36
L-48L
aL8L
aa(lp37
L-12L
aL4L
aa(lp38
L-40L
aL8L
aa(lp39
L-8L
aL8L
aa(lp40
L8L
aL8L
aa(lp41
L-24L
aL8L
aasS'parse_sub_exp'
p42
(lp43
(lp44
L-80L
aL8L
aa(lp45
L-48L
aL8L
aa(lp46
L-72L
aL8L
aa(lp47
L-16L
aL8L
aa(lp48
L-64L
aL8L
aa(lp49
L-40L
aL8L
aa(lp50
L-24L
aL8L
aa(lp51
L-56L
aL8L
aa(lp52
L-8L
aL8L
aa(lp53
L8L
aL8L
aasS'rpl_regexec'
p54
(lp55
(lp56
L-48L
aL8L
aa(lp57
L-32L
aL8L
aa(lp58
L-40L
aL8L
aa(lp59
L-16L
aL8L
aa(lp60
L-68L
aL4L
aa(lp61
L-64L
aL8L
aa(lp62
L-24L
aL8L
aa(lp63
L-4L
aL4L
aa(lp64
L-56L
aL8L
aa(lp65
L8L
aL8L
aasS'quote_n_mem'
p66
(lp67
(lp68
L-24L
aL8L
aa(lp69
L-16L
aL8L
aa(lp70
L-4L
aL4L
aa(lp71
L8L
aL8L
aasS're_string_allocate'
p72
(lp73
(lp74
L-32L
aL8L
aa(lp75
L-60L
aL1L
aa(lp76
L-56L
aL8L
aa(lp77
L16L
aL8L
aa(lp78
L-48L
aL8L
aa(lp79
L-24L
aL8L
aa(lp80
L-12L
aL4L
aa(lp81
L-8L
aL8L
aa(lp82
L-40L
aL8L
aa(lp83
L8L
aL8L
aasS'xrealloc'
p84
(lp85
(lp86
L-16L
aL8L
aa(lp87
L-8L
aL8L
aa(lp88
L8L
aL8L
aasS'update_cur_sifted_state'
p89
(lp90
(lp91
L-80L
aL8L
aa(lp92
L-64L
aL8L
aa(lp93
L-72L
aL8L
aa(lp94
L-36L
aL4L
aa(lp95
L-32L
aL8L
aa(lp96
L-24L
aL8L
aa(lp97
L-56L
aL8L
aa(lp98
L8L
aL8L
aasS'c_toupper'
p99
(lp100
(lp101
L-4L
aL4L
aa(lp102
L8L
aL8L
aasS'transit_state_mb'
p103
(lp104
(lp105
L-128L
aL8L
aa(lp106
L-96L
aL8L
aa(lp107
L-44L
aL4L
aa(lp108
L-32L
aL8L
aa(lp109
L-120L
aL8L
aa(lp110
L-64L
aL8L
aa(lp111
L-48L
aL4L
aa(lp112
L-112L
aL8L
aa(lp113
L-72L
aL8L
aa(lp114
L-76L
aL4L
aa(lp115
L-24L
aL8L
aa(lp116
L-104L
aL8L
aa(lp117
L-56L
aL8L
aa(lp118
L8L
aL8L
aa(lp119
L-40L
aL8L
aasS'peek_token_bracket'
p120
(lp121
(lp122
L-40L
aL8L
aa(lp123
L-8L
aL4L
aa(lp124
L8L
aL8L
aa(lp125
L-1L
aL1L
aa(lp126
L-32L
aL8L
aa(lp127
L-24L
aL8L
aa(lp128
L-10L
aL1L
aa(lp129
L-9L
aL1L
aasS'rpl_memchr'
p130
(lp131
(lp132
L-72L
aL8L
aa(lp133
L-40L
aL8L
aa(lp134
L-32L
aL8L
aa(lp135
L-8L
aL8L
aa(lp136
L-60L
aL4L
aa(lp137
L8L
aL8L
aa(lp138
L-56L
aL8L
aa(lp139
L-16L
aL8L
aa(lp140
L-17L
aL1L
aa(lp141
L-48L
aL8L
aasS'pop_fail_stack'
p142
(lp143
(lp144
L-32L
aL8L
aa(lp145
L-56L
aL8L
aa(lp146
L-48L
aL8L
aa(lp147
L-24L
aL8L
aa(lp148
L-40L
aL8L
aa(lp149
L-8L
aL8L
aa(lp150
L8L
aL8L
aasS'lower_subexps'
p151
(lp152
(lp153
L-32L
aL8L
aa(lp154
L-24L
aL8L
aa(lp155
L8L
aL8L
aa(lp156
L-12L
aL4L
aa(lp157
L-8L
aL8L
aasS'xalloc_die'
p158
(lp159
(lp160
L-3L
aL8L
aa(lp161
L5L
aL8L
aasS'match_ctx_add_sublast'
p162
(lp163
(lp164
L-16L
aL8L
aa(lp165
L-56L
aL8L
aa(lp166
L-48L
aL8L
aa(lp167
L-40L
aL8L
aa(lp168
L-24L
aL8L
aa(lp169
L-8L
aL8L
aa(lp170
L8L
aL8L
aasS'version_etc_ar'
p171
(lp172
(lp173
L-32L
aL8L
aa(lp174
L-56L
aL8L
aa(lp175
L-48L
aL8L
aa(lp176
L-24L
aL8L
aa(lp177
L-40L
aL8L
aa(lp178
L-8L
aL8L
aa(lp179
L8L
aL8L
aasS'mpz_sgn'
p180
(lp181
(lp182
L-8L
aL8L
aa(lp183
L8L
aL8L
aasS'duplicate_tree'
p184
(lp185
(lp186
L-64L
aL8L
aa(lp187
L-32L
aL8L
aa(lp188
L-56L
aL8L
aa(lp189
L-16L
aL8L
aa(lp190
L-24L
aL8L
aa(lp191
L-8L
aL8L
aa(lp192
L-40L
aL8L
aa(lp193
L8L
aL8L
aasS'quotearg_char'
p194
(lp195
(lp196
L-8L
aL8L
aa(lp197
L-12L
aL1L
aa(lp198
L8L
aL8L
aasS'printv'
p199
(lp200
(lp201
L-8L
aL8L
aa(lp202
L8L
aL8L
aasS'check_subexp_matching_top'
p203
(lp204
(lp205
L-16L
aL8L
aa(lp206
L-28L
aL4L
aa(lp207
L-56L
aL8L
aa(lp208
L-48L
aL8L
aa(lp209
L-24L
aL8L
aa(lp210
L-8L
aL8L
aa(lp211
L-40L
aL8L
aa(lp212
L8L
aL8L
aasS'c_tolower'
p213
(lp214
(lp215
L-4L
aL4L
aa(lp216
L8L
aL8L
aasS'check_node_accept_bytes'
p217
(lp218
(lp219
L-96L
aL8L
aa(lp220
L-64L
aL8L
aa(lp221
L-48L
aL8L
aa(lp222
L-88L
aL8L
aa(lp223
L-32L
aL8L
aa(lp224
L-52L
aL4L
aa(lp225
L-16L
aL8L
aa(lp226
L-80L
aL8L
aa(lp227
L-40L
aL4L
aa(lp228
L-20L
aL4L
aa(lp229
L-72L
aL8L
aa(lp230
L8L
aL8L
aa(lp231
L-4L
aL4L
aa(lp232
L-34L
aL1L
aa(lp233
L-33L
aL1L
aasS'clean_state_log_if_needed'
p234
(lp235
(lp236
L-32L
aL8L
aa(lp237
L-24L
aL8L
aa(lp238
L8L
aL8L
aa(lp239
L-12L
aL4L
aa(lp240
L-8L
aL8L
aasS'transit_state'
p241
(lp242
(lp243
L-16L
aL8L
aa(lp244
L-56L
aL8L
aa(lp245
L-20L
aL4L
aa(lp246
L-48L
aL8L
aa(lp247
L8L
aL8L
aa(lp248
L-40L
aL8L
aa(lp249
L-1L
aL1L
aasS'check_arrival_expand_ecl_sub'
p250
(lp251
(lp252
L-32L
aL8L
aa(lp253
L-16L
aL4L
aa(lp254
L-24L
aL8L
aa(lp255
L-52L
aL4L
aa(lp256
L-48L
aL8L
aa(lp257
L-8L
aL8L
aa(lp258
L-9L
aL1L
aa(lp259
L-40L
aL8L
aa(lp260
L8L
aL8L
aasS'set_program_name'
p261
(lp262
(lp263
L-24L
aL8L
aa(lp264
L-16L
aL8L
aa(lp265
L8L
aL8L
aa(lp266
L-8L
aL8L
aasS'expand_bkref_cache'
p267
(lp268
(lp269
L-144L
aL8L
aa(lp270
L-128L
aL1L
aa(lp271
L-24L
aL8L
aa(lp272
L-64L
aL4L
aa(lp273
L-80L
aL8L
aa(lp274
L-136L
aL8L
aa(lp275
L-112L
aL8L
aa(lp276
L-48L
aL8L
aa(lp277
L-164L
aL4L
aa(lp278
L-96L
aL1L
aa(lp279
L-65L
aL1L
aa(lp280
L-160L
aL8L
aa(lp281
L-72L
aL4L
aa(lp282
L-32L
aL8L
aa(lp283
L-60L
aL4L
aa(lp284
L-152L
aL8L
aa(lp285
L-56L
aL8L
aa(lp286
L-40L
aL8L
aa(lp287
L8L
aL8L
aasS'mpz_mul'
p288
(lp289
(lp290
L-16L
aL8L
aa(lp291
L-56L
aL8L
aa(lp292
L-48L
aL8L
aa(lp293
L-40L
aL8L
aa(lp294
L-24L
aL8L
aa(lp295
L-8L
aL8L
aa(lp296
L8L
aL8L
aasS'usage'
p297
(lp298
(lp299
L8L
aL8L
aa(lp300
L-20L
aL4L
aasS'sift_states_bkref'
p301
(lp302
(lp303
L-192L
aL8L
aa(lp304
L-60L
aL4L
aa(lp305
L-184L
aL8L
aa(lp306
L-48L
aL8L
aa(lp307
L-168L
aL8L
aa(lp308
L-40L
aL8L
aa(lp309
L-160L
aL8L
aa(lp310
L-16L
aL8L
aa(lp311
L-152L
aL8L
aa(lp312
L-144L
aL8L
aa(lp313
L-56L
aL8L
aa(lp314
L-136L
aL8L
aa(lp315
L-4L
aL4L
aa(lp316
L-128L
aL8L
aa(lp317
L-32L
aL8L
aa(lp318
L-120L
aL8L
aa(lp319
L-112L
aL8L
aa(lp320
L-104L
aL8L
aa(lp321
L-176L
aL8L
aa(lp322
L-89L
aL1L
aa(lp323
L-88L
aL8L
aa(lp324
L-80L
aL8L
aa(lp325
L-24L
aL8L
aa(lp326
L-72L
aL8L
aa(lp327
L8L
aL8L
aasS'check_dst_limits_calc_pos_1'
p328
(lp329
(lp330
L-48L
aL8L
aa(lp331
L-32L
aL8L
aa(lp332
L-76L
aL4L
aa(lp333
L-104L
aL8L
aa(lp334
L-16L
aL8L
aa(lp335
L-96L
aL8L
aa(lp336
L-72L
aL8L
aa(lp337
L8L
aL8L
aa(lp338
L-8L
aL8L
aa(lp339
L-88L
aL8L
aa(lp340
L-40L
aL8L
aa(lp341
L-52L
aL4L
aa(lp342
L-24L
aL8L
aasS'main'
p343
(lp344
(lp345
L-48L
aL8L
aa(lp346
L-8L
aL8L
aa(lp347
L-36L
aL4L
aa(lp348
L-32L
aL8L
aa(lp349
L8L
aL8L
aa(lp350
L-20L
aL4L
aasS'prune_impossible_nodes'
p351
(lp352
(lp353
L-32L
aL8L
aa(lp354
L-64L
aL8L
aa(lp355
L-120L
aL8L
aa(lp356
L-48L
aL8L
aa(lp357
L-20L
aL4L
aa(lp358
L-16L
aL8L
aa(lp359
L-112L
aL1L
aa(lp360
L-8L
aL8L
aa(lp361
L-40L
aL8L
aa(lp362
L8L
aL8L
aasS'find_recover_state'
p363
(lp364
(lp365
L-48L
aL8L
aa(lp366
L-16L
aL8L
aa(lp367
L-40L
aL8L
aa(lp368
L-8L
aL8L
aa(lp369
L8L
aL8L
aa(lp370
L-24L
aL8L
aasS'quotearg_alloc_mem'
p371
(lp372
(lp373
L-64L
aL8L
aa(lp374
L-32L
aL8L
aa(lp375
L-16L
aL4L
aa(lp376
L-56L
aL8L
aa(lp377
L-48L
aL8L
aa(lp378
L-24L
aL8L
aa(lp379
L-12L
aL4L
aa(lp380
L-8L
aL8L
aa(lp381
L-40L
aL8L
aa(lp382
L8L
aL8L
aasS'create_initial_state'
p383
(lp384
(lp385
L-80L
aL8L
aa(lp386
L-64L
aL4L
aa(lp387
L-16L
aL8L
aa(lp388
L-104L
aL8L
aa(lp389
L-48L
aL8L
aa(lp390
L-36L
aL4L
aa(lp391
L-32L
aL8L
aa(lp392
L-96L
aL1L
aa(lp393
L-56L
aL8L
aa(lp394
L-60L
aL4L
aa(lp395
L8L
aL8L
aa(lp396
L-88L
aL8L
aa(lp397
L-24L
aL8L
aa(lp398
L-8L
aL8L
aasS'mpz_init_set_str'
p399
(lp400
(lp401
L-16L
aL8L
aa(lp402
L-8L
aL8L
aa(lp403
L-20L
aL4L
aa(lp404
L8L
aL8L
aasS'calc_eclosure'
p405
(lp406
(lp407
L-32L
aL8L
aa(lp408
L-16L
aL4L
aa(lp409
L-56L
aL8L
aa(lp410
L-48L
aL1L
aa(lp411
L8L
aL8L
aa(lp412
L-9L
aL1L
aa(lp413
L-8L
aL8L
aasS're_acquire_state'
p414
(lp415
(lp416
L-16L
aL8L
aa(lp417
L-32L
aL8L
aa(lp418
L-72L
aL8L
aa(lp419
L-64L
aL8L
aa(lp420
L-56L
aL8L
aa(lp421
L-40L
aL8L
aa(lp422
L-24L
aL8L
aa(lp423
L-8L
aL8L
aa(lp424
L8L
aL8L
aasS'_getopt_internal_r'
p425
(lp426
(lp427
L-64L
aL8L
aa(lp428
L-28L
aL4L
aa(lp429
L-88L
aL8L
aa(lp430
L-20L
aL4L
aa(lp431
L-21L
aL1L
aa(lp432
L-52L
aL4L
aa(lp433
L16L
aL8L
aa(lp434
L-80L
aL8L
aa(lp435
L-56L
aL4L
aa(lp436
L-40L
aL8L
aa(lp437
L-72L
aL8L
aa(lp438
L8L
aL8L
aa(lp439
L24L
aL4L
aasS're_string_elem_size_at'
p440
(lp441
(lp442
L-16L
aL8L
aa(lp443
L-8L
aL8L
aa(lp444
L8L
aL8L
aasS'get_subexp_sub'
p445
(lp446
(lp447
L-40L
aL8L
aa(lp448
L-24L
aL8L
aa(lp449
L-4L
aL4L
aa(lp450
L-32L
aL8L
aa(lp451
L8L
aL8L
aa(lp452
L-56L
aL8L
aa(lp453
L-16L
aL8L
aa(lp454
L-48L
aL8L
aasS'require_more_args'
p455
(lp456
(lp457
L8L
aL8L
aasS'xmemdup'
p458
(lp459
(lp460
L-16L
aL8L
aa(lp461
L-8L
aL8L
aa(lp462
L8L
aL8L
aasS'quotearg_n_custom'
p463
(lp464
(lp465
L-32L
aL8L
aa(lp466
L-24L
aL8L
aa(lp467
L-16L
aL8L
aa(lp468
L8L
aL8L
aa(lp469
L-4L
aL4L
aasS'nomoreargs'
p470
(lp471
(lp472
L-3L
aL8L
aa(lp473
L5L
aL8L
aasS'quotearg_alloc'
p474
(lp475
(lp476
L-24L
aL8L
aa(lp477
L-16L
aL8L
aa(lp478
L8L
aL8L
aa(lp479
L-8L
aL8L
aasS'quotearg_n_style_mem'
p480
(lp481
(lp482
L-64L
aL1L
aa(lp483
L-88L
aL8L
aa(lp484
L-80L
aL8L
aa(lp485
L8L
aL8L
aa(lp486
L-72L
aL4L
aa(lp487
L-68L
aL4L
aasS'match_ctx_init'
p488
(lp489
(lp490
L-40L
aL8L
aa(lp491
L8L
aL8L
aa(lp492
L-28L
aL4L
aa(lp493
L-8L
aL8L
aa(lp494
L-24L
aL8L
aasS'link_nfa_nodes'
p495
(lp496
(lp497
L-64L
aL8L
aa(lp498
L-32L
aL8L
aa(lp499
L-56L
aL8L
aa(lp500
L-16L
aL8L
aa(lp501
L-24L
aL8L
aa(lp502
L-40L
aL8L
aa(lp503
L8L
aL8L
aa(lp504
L-4L
aL4L
aasS'parse_branch'
p505
(lp506
(lp507
L-80L
aL8L
aa(lp508
L-48L
aL8L
aa(lp509
L-32L
aL8L
aa(lp510
L-72L
aL8L
aa(lp511
L-16L
aL8L
aa(lp512
L-64L
aL8L
aa(lp513
L-40L
aL8L
aa(lp514
L-24L
aL8L
aa(lp515
L-56L
aL8L
aa(lp516
L-8L
aL8L
aa(lp517
L8L
aL8L
aasS'c_strcasecmp'
p518
(lp519
(lp520
L-48L
aL8L
aa(lp521
L-40L
aL8L
aa(lp522
L8L
aL8L
aa(lp523
L-18L
aL1L
aa(lp524
L-17L
aL1L
aasS're_string_translate_buffer'
p525
(lp526
(lp527
L-40L
aL8L
aa(lp528
L-8L
aL8L
aa(lp529
L8L
aL8L
aa(lp530
L-20L
aL4L
aa(lp531
L-16L
aL8L
aasS'bkm_scale'
p532
(lp533
(lp534
L-12L
aL4L
aa(lp535
L-8L
aL8L
aa(lp536
L8L
aL8L
aasS'find_subexp_node'
p537
(lp538
(lp539
L-60L
aL4L
aa(lp540
L8L
aL8L
aa(lp541
L-56L
aL8L
aa(lp542
L-16L
aL8L
aa(lp543
L-48L
aL8L
aa(lp544
L-40L
aL8L
aa(lp545
L-24L
aL8L
aa(lp546
L-8L
aL8L
aasS'x2nrealloc'
p547
(lp548
(lp549
L-40L
aL8L
aa(lp550
L-32L
aL8L
aa(lp551
L-24L
aL8L
aa(lp552
L-8L
aL8L
aa(lp553
L8L
aL8L
aasS'quoting_options_from_style'
p554
(lp555
(lp556
L-48L
aL8L
aa(lp557
L-32L
aL8L
aa(lp558
L-76L
aL4L
aa(lp559
L-72L
aL8L
aa(lp560
L-16L
aL8L
aa(lp561
L-64L
aL8L
aa(lp562
L-40L
aL8L
aa(lp563
L-24L
aL8L
aa(lp564
L-56L
aL8L
aa(lp565
L8L
aL8L
aasS'c_isupper'
p566
(lp567
(lp568
L-4L
aL4L
aa(lp569
L8L
aL8L
aasS'get_quoting_style'
p570
(lp571
(lp572
L-8L
aL8L
aa(lp573
L8L
aL8L
aasS'quotearg_char_mem'
p574
(lp575
(lp576
L-64L
aL8L
aa(lp577
L-48L
aL8L
aa(lp578
L-56L
aL8L
aa(lp579
L-32L
aL8L
aa(lp580
L-84L
aL1L
aa(lp581
L-16L
aL8L
aa(lp582
L-80L
aL8L
aa(lp583
L-40L
aL8L
aa(lp584
L-72L
aL8L
aa(lp585
L-24L
aL8L
aa(lp586
L8L
aL8L
aasS'push_fail_stack'
p587
(lp588
(lp589
L-96L
aL8L
aa(lp590
L-64L
aL8L
aa(lp591
L-88L
aL8L
aa(lp592
L-32L
aL8L
aa(lp593
L-80L
aL8L
aa(lp594
L-56L
aL8L
aa(lp595
L-72L
aL8L
aa(lp596
L-24L
aL8L
aa(lp597
L-36L
aL4L
aa(lp598
L8L
aL8L
aasS'create_token_tree'
p599
(lp600
(lp601
L-48L
aL8L
aa(lp602
L-16L
aL8L
aa(lp603
L-40L
aL8L
aa(lp604
L-32L
aL8L
aa(lp605
L-8L
aL8L
aa(lp606
L8L
aL8L
aa(lp607
L-24L
aL8L
aasS'bitset_merge'
p608
(lp609
(lp610
L-32L
aL8L
aa(lp611
L-24L
aL8L
aa(lp612
L-4L
aL4L
aa(lp613
L8L
aL8L
aasS'get_subexp'
p614
(lp615
(lp616
L-128L
aL8L
aa(lp617
L-112L
aL8L
aa(lp618
L-8L
aL8L
aa(lp619
L-48L
aL8L
aa(lp620
L-64L
aL8L
aa(lp621
L-152L
aL8L
aa(lp622
L-96L
aL8L
aa(lp623
L-32L
aL8L
aa(lp624
L-80L
aL8L
aa(lp625
L-144L
aL8L
aa(lp626
L-120L
aL8L
aa(lp627
L-16L
aL8L
aa(lp628
L-40L
aL8L
aa(lp629
L-56L
aL8L
aa(lp630
L-136L
aL8L
aa(lp631
L-88L
aL8L
aa(lp632
L-24L
aL8L
aa(lp633
L8L
aL8L
aa(lp634
L-100L
aL4L
aa(lp635
L-72L
aL8L
aasS'c_isdigit'
p636
(lp637
(lp638
L-4L
aL4L
aa(lp639
L8L
aL8L
aasS'close_stdout'
p640
(lp641
(lp642
L-24L
aL8L
aa(lp643
L8L
aL8L
aasS'rpl_re_compile_fastmap'
p644
(lp645
(lp646
L-24L
aL8L
aa(lp647
L-16L
aL8L
aa(lp648
L8L
aL8L
aa(lp649
L-8L
aL8L
aasS'_getopt_long_r'
p650
(lp651
(lp652
L-48L
aL8L
aa(lp653
L-16L
aL8L
aa(lp654
L-40L
aL8L
aa(lp655
L-4L
aL4L
aa(lp656
L-32L
aL8L
aa(lp657
L8L
aL8L
aa(lp658
L-24L
aL8L
aasS'bitset_mask'
p659
(lp660
(lp661
L-32L
aL8L
aa(lp662
L-24L
aL8L
aa(lp663
L-4L
aL4L
aa(lp664
L8L
aL8L
aasS'bitset_set'
p665
(lp666
(lp667
L-16L
aL8L
aa(lp668
L-8L
aL8L
aa(lp669
L8L
aL8L
aasS'integer_overflow'
p670
(lp671
(lp672
L8L
aL8L
aa(lp673
L-4L
aL1L
aasS'mpz_out_str'
p674
(lp675
(lp676
L-32L
aL1L
aa(lp677
L-56L
aL8L
aa(lp678
L8L
aL8L
aa(lp679
L-44L
aL4L
aa(lp680
L-40L
aL8L
aasS'close_stream'
p681
(lp682
(lp683
L-24L
aL8L
aa(lp684
L8L
aL8L
aa(lp685
L-3L
aL1L
aa(lp686
L-2L
aL1L
aa(lp687
L-1L
aL1L
aasS'fetch_number'
p688
(lp689
(lp690
L-9L
aL1L
aa(lp691
L-40L
aL8L
aa(lp692
L-32L
aL8L
aa(lp693
L-8L
aL8L
aa(lp694
L8L
aL8L
aa(lp695
L-24L
aL8L
aasS'mpz_tdiv_q'
p696
(lp697
(lp698
L-16L
aL8L
aa(lp699
L-40L
aL8L
aa(lp700
L-32L
aL8L
aa(lp701
L-8L
aL8L
aa(lp702
L8L
aL8L
aa(lp703
L-24L
aL8L
aasS'mpz_tdiv_r'
p704
(lp705
(lp706
L-40L
aL8L
aa(lp707
L-8L
aL8L
aa(lp708
L8L
aL8L
aa(lp709
L-32L
aL8L
aa(lp710
L-24L
aL8L
aa(lp711
L-16L
aL8L
aasS're_compile_fastmap_iter'
p712
(lp713
(lp714
L-128L
aL4L
aa(lp715
L-64L
aL4L
aa(lp716
L8L
aL8L
aa(lp717
L-121L
aL1L
aa(lp718
L-120L
aL8L
aa(lp719
L-496L
aL8L
aa(lp720
L-104L
aL8L
aa(lp721
L-105L
aL1L
aa(lp722
L-488L
aL8L
aa(lp723
L-224L
aL8L
aa(lp724
L-16L
aL8L
aa(lp725
L-89L
aL1L
aa(lp726
L-216L
aL1L
aa(lp727
L-80L
aL8L
aa(lp728
L-504L
aL8L
aa(lp729
L-205L
aL1L
aa(lp730
L-204L
aL1L
aa(lp731
L-72L
aL8L
aa(lp732
L-196L
aL4L
aa(lp733
L-192L
aL1L
aa(lp734
L-480L
aL1L
aa(lp735
L-24L
aL8L
aa(lp736
L-57L
aL1L
aa(lp737
L-56L
aL8L
aa(lp738
L-176L
aL4L
aa(lp739
L-8L
aL8L
aa(lp740
L-96L
aL4L
aa(lp741
L-32L
aL4L
aa(lp742
L-169L
aL1L
aa(lp743
L-168L
aL8L
aa(lp744
L-36L
aL4L
aa(lp745
L-160L
aL4L
aa(lp746
L-112L
aL4L
aa(lp747
L-28L
aL4L
aa(lp748
L-153L
aL1L
aa(lp749
L-152L
aL8L
aa(lp750
L-144L
aL4L
aa(lp751
L-88L
aL8L
aa(lp752
L-48L
aL8L
aa(lp753
L-137L
aL1L
aa(lp754
L-136L
aL8L
aasS'mpz_fits_ulong_p'
p755
(lp756
(lp757
L-8L
aL8L
aa(lp758
L8L
aL8L
aasS'calc_first'
p759
(lp760
(lp761
L-32L
aL8L
aa(lp762
L-24L
aL8L
aa(lp763
L8L
aL8L
aa(lp764
L-8L
aL8L
aasS'duplicate_node'
p765
(lp766
(lp767
L-8L
aL8L
aa(lp768
L-36L
aL4L
aa(lp769
L-32L
aL8L
aa(lp770
L8L
aL8L
aa(lp771
L-24L
aL8L
aasS'strnlen1'
p772
(lp773
(lp774
L-32L
aL8L
aa(lp775
L-24L
aL8L
aa(lp776
L8L
aL8L
aa(lp777
L-8L
aL8L
aasS'bitset_contain'
p778
(lp779
(lp780
L-16L
aL8L
aa(lp781
L-8L
aL8L
aa(lp782
L8L
aL8L
aasS'peek_token'
p783
(lp784
(lp785
L-32L
aL1L
aa(lp786
L-56L
aL8L
aa(lp787
L-48L
aL8L
aa(lp788
L-24L
aL1L
aa(lp789
L-13L
aL1L
aa(lp790
L-12L
aL4L
aa(lp791
L-8L
aL4L
aa(lp792
L-40L
aL8L
aa(lp793
L8L
aL8L
aa(lp794
L-2L
aL1L
aa(lp795
L-1L
aL1L
aasS'bitset_set_all'
p796
(lp797
(lp798
L-8L
aL8L
aa(lp799
L8L
aL8L
aasS're_node_set_contains'
p800
(lp801
(lp802
L-48L
aL8L
aa(lp803
L-16L
aL8L
aa(lp804
L-40L
aL8L
aa(lp805
L-8L
aL8L
aa(lp806
L8L
aL8L
aa(lp807
L-24L
aL8L
aasS're_string_realloc_buffers'
p808
(lp809
(lp810
L-48L
aL8L
aa(lp811
L-16L
aL8L
aa(lp812
L-40L
aL8L
aa(lp813
L-32L
aL8L
aa(lp814
L-8L
aL8L
aa(lp815
L8L
aL8L
aa(lp816
L-24L
aL8L
aasS'rpl_re_set_syntax'
p817
(lp818
(lp819
L-24L
aL8L
aa(lp820
L-8L
aL8L
aa(lp821
L8L
aL8L
aasS'quotearg'
p822
(lp823
(lp824
L-8L
aL8L
aa(lp825
L8L
aL8L
aasS'quotearg_free'
p826
(lp827
(lp828
L-16L
aL8L
aa(lp829
L-4L
aL4L
aa(lp830
L8L
aL8L
aasS'calc_inveclosure'
p831
(lp832
(lp833
L-16L
aL8L
aa(lp834
L-40L
aL8L
aa(lp835
L-8L
aL8L
aa(lp836
L8L
aL8L
aa(lp837
L-25L
aL1L
aa(lp838
L-24L
aL8L
aasS're_string_destruct'
p839
(lp840
(lp841
L-8L
aL8L
aa(lp842
L8L
aL8L
aasS'bkm_scale_by_power'
p843
(lp844
(lp845
L-32L
aL4L
aa(lp846
L-28L
aL4L
aa(lp847
L-24L
aL8L
aa(lp848
L8L
aL8L
aa(lp849
L-4L
aL4L
aasS're_compile_internal'
p850
(lp851
(lp852
L-208L
aL8L
aa(lp853
L-176L
aL1L
aa(lp854
L-12L
aL4L
aa(lp855
L-200L
aL8L
aa(lp856
L-192L
aL8L
aa(lp857
L-8L
aL8L
aa(lp858
L-184L
aL8L
aa(lp859
L8L
aL8L
aasS'create_ci_newstate'
p860
(lp861
(lp862
L-16L
aL8L
aa(lp863
L-32L
aL8L
aa(lp864
L-72L
aL8L
aa(lp865
L-36L
aL4L
aa(lp866
L-64L
aL8L
aa(lp867
L-8L
aL8L
aa(lp868
L-56L
aL8L
aa(lp869
L8L
aL8L
aa(lp870
L-20L
aL4L
aasS'search_cur_bkref_entry'
p871
(lp872
(lp873
L-48L
aL8L
aa(lp874
L-16L
aL8L
aa(lp875
L-40L
aL8L
aa(lp876
L-32L
aL8L
aa(lp877
L-8L
aL8L
aa(lp878
L8L
aL8L
aa(lp879
L-24L
aL8L
aasS'close_stdout_set_file_name'
p880
(lp881
(lp882
L-8L
aL8L
aa(lp883
L8L
aL8L
aasS're_node_set_remove_at'
p884
(lp885
(lp886
L-16L
aL8L
aa(lp887
L-8L
aL8L
aa(lp888
L8L
aL8L
aasS'freev'
p889
(lp890
(lp891
L-8L
aL8L
aa(lp892
L8L
aL8L
aasS'rpl_fseeko'
p893
(lp894
(lp895
L-8L
aL8L
aa(lp896
L-36L
aL4L
aa(lp897
L-32L
aL8L
aa(lp898
L8L
aL8L
aa(lp899
L-24L
aL8L
aasS'xnrealloc'
p900
(lp901
(lp902
L-24L
aL8L
aa(lp903
L-16L
aL8L
aa(lp904
L8L
aL8L
aa(lp905
L-8L
aL8L
aasS'quote_mem'
p906
(lp907
(lp908
L-16L
aL8L
aa(lp909
L-8L
aL8L
aa(lp910
L8L
aL8L
aasS're_node_set_alloc'
p911
(lp912
(lp913
L-16L
aL8L
aa(lp914
L-8L
aL8L
aa(lp915
L8L
aL8L
aasS'parse_byte'
p916
(lp917
(lp918
L-32L
aL8L
aa(lp919
L-4L
aL4L
aa(lp920
L-20L
aL1L
aa(lp921
L8L
aL8L
aasS'quotearg_buffer_restyled'
p922
(lp923
(lp924
L-64L
aL1L
aa(lp925
L-63L
aL1L
aa(lp926
L-62L
aL1L
aa(lp927
L-61L
aL1L
aa(lp928
L-60L
aL1L
aa(lp929
L-59L
aL1L
aa(lp930
L-58L
aL1L
aa(lp931
L-57L
aL1L
aa(lp932
L-184L
aL4L
aa(lp933
L-180L
aL4L
aa(lp934
L-176L
aL8L
aa(lp935
L-40L
aL8L
aa(lp936
L-168L
aL8L
aa(lp937
L-160L
aL8L
aa(lp938
L-152L
aL8L
aa(lp939
L-56L
aL8L
aa(lp940
L-8L
aL8L
aa(lp941
L-132L
aL4L
aa(lp942
L-128L
aL8L
aa(lp943
L-32L
aL8L
aa(lp944
L-120L
aL8L
aa(lp945
L32L
aL8L
aa(lp946
L-112L
aL8L
aa(lp947
L24L
aL8L
aa(lp948
L-97L
aL1L
aa(lp949
L-96L
aL8L
aa(lp950
L-48L
aL8L
aa(lp951
L16L
aL8L
aa(lp952
L-81L
aL1L
aa(lp953
L-80L
aL8L
aa(lp954
L-24L
aL8L
aa(lp955
L8L
aL8L
aa(lp956
L-66L
aL1L
aa(lp957
L-65L
aL1L
aasS'match_ctx_add_subtop'
p958
(lp959
(lp960
L-32L
aL8L
aa(lp961
L-56L
aL8L
aa(lp962
L-48L
aL8L
aa(lp963
L-24L
aL8L
aa(lp964
L-40L
aL8L
aa(lp965
L8L
aL8L
aasS'rpl_re_search'
p966
(lp967
(lp968
L-48L
aL8L
aa(lp969
L-16L
aL8L
aa(lp970
L-40L
aL8L
aa(lp971
L-32L
aL8L
aa(lp972
L-8L
aL8L
aa(lp973
L8L
aL8L
aa(lp974
L-24L
aL8L
aasS'merge_state_with_log'
p975
(lp976
(lp977
L-96L
aL8L
aa(lp978
L-80L
aL8L
aa(lp979
L-60L
aL4L
aa(lp980
L-120L
aL8L
aa(lp981
L-48L
aL8L
aa(lp982
L-32L
aL8L
aa(lp983
L-112L
aL8L
aa(lp984
L-88L
aL8L
aa(lp985
L-24L
aL8L
aa(lp986
L-104L
aL8L
aa(lp987
L-56L
aL8L
aa(lp988
L8L
aL8L
aa(lp989
L-40L
aL8L
aasS'quotearg_buffer'
p990
(lp991
(lp992
L-48L
aL8L
aa(lp993
L-12L
aL4L
aa(lp994
L-72L
aL8L
aa(lp995
L-64L
aL8L
aa(lp996
L-40L
aL8L
aa(lp997
L-56L
aL8L
aa(lp998
L-24L
aL8L
aa(lp999
L-8L
aL8L
aa(lp1000
L8L
aL8L
aasS'numcompare'
p1001
(lp1002
(lp1003
L-56L
aL4L
aa(lp1004
L-24L
aL8L
aa(lp1005
L-52L
aL4L
aa(lp1006
L-48L
aL8L
aa(lp1007
L8L
aL8L
aa(lp1008
L-40L
aL8L
aa(lp1009
L-16L
aL8L
aa(lp1010
L-2L
aL1L
aa(lp1011
L-1L
aL1L
aa(lp1012
L-28L
aL4L
aasS'match_ctx_free'
p1013
(lp1014
(lp1015
L-8L
aL8L
aa(lp1016
L8L
aL8L
aasS're_search_stub'
p1017
(lp1018
(lp1019
L-96L
aL8L
aa(lp1020
L-80L
aL8L
aa(lp1021
L24L
aL4L
aa(lp1022
L-28L
aL4L
aa(lp1023
L-16L
aL8L
aa(lp1024
L-88L
aL8L
aa(lp1025
L-52L
aL4L
aa(lp1026
L-116L
aL1L
aa(lp1027
L-48L
aL8L
aa(lp1028
L-112L
aL8L
aa(lp1029
L-72L
aL8L
aa(lp1030
L16L
aL8L
aa(lp1031
L-8L
aL8L
aa(lp1032
L-104L
aL8L
aa(lp1033
L-40L
aL8L
aa(lp1034
L8L
aL8L
aa(lp1035
L-24L
aL8L
aasS'check_arrival'
p1036
(lp1037
(lp1038
L-192L
aL8L
aa(lp1039
L-64L
aL8L
aa(lp1040
L-184L
aL8L
aa(lp1041
L-176L
aL8L
aa(lp1042
L-168L
aL8L
aa(lp1043
L-40L
aL8L
aa(lp1044
L-160L
aL8L
aa(lp1045
L-16L
aL8L
aa(lp1046
L-152L
aL8L
aa(lp1047
L-144L
aL1L
aa(lp1048
L-56L
aL8L
aa(lp1049
L-136L
aL8L
aa(lp1050
L-128L
aL8L
aa(lp1051
L-32L
aL8L
aa(lp1052
L8L
aL8L
aa(lp1053
L16L
aL4L
aa(lp1054
L-8L
aL8L
aa(lp1055
L-108L
aL4L
aa(lp1056
L-104L
aL8L
aa(lp1057
L-48L
aL8L
aa(lp1058
L-92L
aL4L
aa(lp1059
L-88L
aL8L
aa(lp1060
L-80L
aL8L
aa(lp1061
L-24L
aL8L
aa(lp1062
L-72L
aL8L
aasS'create_cd_newstate'
p1063
(lp1064
(lp1065
L-80L
aL8L
aa(lp1066
L-48L
aL4L
aa(lp1067
L-44L
aL4L
aa(lp1068
L-40L
aL8L
aa(lp1069
L-16L
aL8L
aa(lp1070
L-68L
aL4L
aa(lp1071
L-64L
aL8L
aa(lp1072
L-24L
aL8L
aa(lp1073
L-28L
aL4L
aa(lp1074
L-56L
aL8L
aa(lp1075
L-8L
aL8L
aa(lp1076
L8L
aL8L
aasS'free_workarea_compile'
p1077
(lp1078
(lp1079
L-16L
aL8L
aa(lp1080
L-40L
aL8L
aa(lp1081
L8L
aL8L
aa(lp1082
L-8L
aL8L
aa(lp1083
L-24L
aL8L
aasS'exchange'
p1084
(lp1085
(lp1086
L-64L
aL8L
aa(lp1087
L-32L
aL8L
aa(lp1088
L-56L
aL8L
aa(lp1089
L-4L
aL4L
aa(lp1090
L-20L
aL4L
aa(lp1091
L-16L
aL4L
aa(lp1092
L-24L
aL4L
aa(lp1093
L-12L
aL4L
aa(lp1094
L-8L
aL4L
aa(lp1095
L8L
aL8L
aa(lp1096
L-36L
aL4L
aasS'mb_copy'
p1097
(lp1098
(lp1099
L-16L
aL8L
aa(lp1100
L-8L
aL8L
aa(lp1101
L8L
aL8L
aasS'__libc_csu_fini'
p1102
(lp1103
(lp1104
L-3L
aL8L
aasS're_string_construct_common'
p1105
(lp1106
(lp1107
L-48L
aL8L
aa(lp1108
L-16L
aL8L
aa(lp1109
L-8L
aL8L
aa(lp1110
L-36L
aL1L
aa(lp1111
L-32L
aL8L
aa(lp1112
L8L
aL8L
aa(lp1113
L-24L
aL8L
aasS're_copy_regs'
p1114
(lp1115
(lp1116
L-16L
aL8L
aa(lp1117
L-32L
aL8L
aa(lp1118
L-76L
aL4L
aa(lp1119
L-72L
aL8L
aa(lp1120
L-4L
aL4L
aa(lp1121
L-64L
aL8L
aa(lp1122
L-40L
aL8L
aa(lp1123
L-24L
aL8L
aa(lp1124
L-56L
aL8L
aa(lp1125
L8L
aL8L
aasS'fraccompare'
p1126
(lp1127
(lp1128
L-20L
aL1L
aa(lp1129
L-8L
aL8L
aa(lp1130
L-16L
aL8L
aa(lp1131
L8L
aL8L
aasS'lower_subexp'
p1132
(lp1133
(lp1134
L-48L
aL8L
aa(lp1135
L-32L
aL8L
aa(lp1136
L-72L
aL8L
aa(lp1137
L-16L
aL8L
aa(lp1138
L-64L
aL8L
aa(lp1139
L-40L
aL8L
aa(lp1140
L-24L
aL8L
aa(lp1141
L-56L
aL8L
aa(lp1142
L-8L
aL8L
aa(lp1143
L8L
aL8L
aasS'calc_next'
p1144
(lp1145
(lp1146
L-16L
aL8L
aa(lp1147
L-8L
aL8L
aa(lp1148
L8L
aL8L
aasS'frame_dummy'
p1149
(lp1150
(lp1151
L-3L
aL8L
aasS'build_equiv_class'
p1152
(lp1153
(lp1154
L-32L
aL8L
aa(lp1155
L-24L
aL8L
aa(lp1156
L-16L
aL8L
aa(lp1157
L8L
aL8L
aa(lp1158
L-8L
aL8L
aasS'build_wcs_buffer'
p1159
(lp1160
(lp1161
L-128L
aL1L
aa(lp1162
L-16L
aL8L
aa(lp1163
L-8L
aL8L
aa(lp1164
L-28L
aL4L
aa(lp1165
L-152L
aL8L
aa(lp1166
L-52L
aL4L
aa(lp1167
L-48L
aL8L
aa(lp1168
L-40L
aL8L
aa(lp1169
L-140L
aL4L
aa(lp1170
L-136L
aL8L
aa(lp1171
L-24L
aL8L
aa(lp1172
L8L
aL8L
aasS'nextarg'
p1173
(lp1174
(lp1175
L-24L
aL8L
aa(lp1176
L8L
aL8L
aa(lp1177
L-1L
aL1L
aasS're_node_set_merge'
p1178
(lp1179
(lp1180
L-64L
aL8L
aa(lp1181
L-32L
aL8L
aa(lp1182
L-16L
aL8L
aa(lp1183
L-56L
aL8L
aa(lp1184
L-48L
aL8L
aa(lp1185
L-24L
aL8L
aa(lp1186
L-8L
aL8L
aa(lp1187
L-40L
aL8L
aa(lp1188
L8L
aL8L
aasS'mbuiter_multi_next'
p1189
(lp1190
(lp1191
L-24L
aL8L
aa(lp1192
L8L
aL8L
aasS'mpz_init_set_ui'
p1193
(lp1194
(lp1195
L-16L
aL8L
aa(lp1196
L-8L
aL8L
aa(lp1197
L8L
aL8L
aasS'bitset_not'
p1198
(lp1199
(lp1200
L-24L
aL8L
aa(lp1201
L-4L
aL4L
aa(lp1202
L8L
aL8L
aasS'rpl_re_set_registers'
p1203
(lp1204
(lp1205
L-40L
aL8L
aa(lp1206
L-8L
aL8L
aa(lp1207
L8L
aL8L
aa(lp1208
L-32L
aL8L
aa(lp1209
L-24L
aL8L
aa(lp1210
L-16L
aL8L
aasS're_string_wchar_at'
p1211
(lp1212
(lp1213
L-16L
aL8L
aa(lp1214
L-8L
aL8L
aa(lp1215
L8L
aL8L
aasS'mb_width_aux'
p1216
(lp1217
(lp1218
L-4L
aL4L
aa(lp1219
L-20L
aL4L
aa(lp1220
L8L
aL8L
aasS'check_matching'
p1221
(lp1222
(lp1223
L-112L
aL4L
aa(lp1224
L-80L
aL8L
aa(lp1225
L-8L
aL8L
aa(lp1226
L-108L
aL4L
aa(lp1227
L-40L
aL8L
aa(lp1228
L-136L
aL8L
aa(lp1229
L-64L
aL8L
aa(lp1230
L-16L
aL8L
aa(lp1231
L-25L
aL1L
aa(lp1232
L-48L
aL8L
aa(lp1233
L-96L
aL8L
aa(lp1234
L-104L
aL8L
aa(lp1235
L-124L
aL1L
aa(lp1236
L8L
aL8L
aa(lp1237
L-88L
aL8L
aa(lp1238
L-120L
aL8L
aa(lp1239
L-72L
aL8L
aa(lp1240
L-24L
aL8L
aa(lp1241
L-56L
aL8L
aasS'set_quoting_style'
p1242
(lp1243
(lp1244
L-12L
aL4L
aa(lp1245
L-8L
aL8L
aa(lp1246
L8L
aL8L
aasS'mark_opt_subexp'
p1247
(lp1248
(lp1249
L-32L
aL8L
aa(lp1250
L-24L
aL8L
aa(lp1251
L8L
aL8L
aa(lp1252
L-8L
aL8L
aasS'rpl_re_compile_pattern'
p1253
(lp1254
(lp1255
L-40L
aL8L
aa(lp1256
L-4L
aL4L
aa(lp1257
L-32L
aL8L
aa(lp1258
L-24L
aL8L
aa(lp1259
L8L
aL8L
aasS'quotearg_n_options'
p1260
(lp1261
(lp1262
L-96L
aL8L
aa(lp1263
L-16L
aL8L
aa(lp1264
L-28L
aL4L
aa(lp1265
L-88L
aL8L
aa(lp1266
L-21L
aL1L
aa(lp1267
L-20L
aL4L
aa(lp1268
L-80L
aL8L
aa(lp1269
L-56L
aL8L
aa(lp1270
L-44L
aL4L
aa(lp1271
L-40L
aL8L
aa(lp1272
L-8L
aL8L
aa(lp1273
L-68L
aL4L
aa(lp1274
L8L
aL8L
aasS'locale_charset'
p1275
(lp1276
(lp1277
L-16L
aL8L
aa(lp1278
L-8L
aL8L
aa(lp1279
L8L
aL8L
aasS'proceed_next_node'
p1280
(lp1281
(lp1282
L-160L
aL8L
aa(lp1283
L-32L
aL8L
aa(lp1284
L-152L
aL8L
aa(lp1285
L-144L
aL8L
aa(lp1286
L-136L
aL8L
aa(lp1287
L-8L
aL8L
aa(lp1288
L-128L
aL8L
aa(lp1289
L-120L
aL8L
aa(lp1290
L16L
aL8L
aa(lp1291
L-24L
aL8L
aa(lp1292
L-104L
aL8L
aa(lp1293
L-96L
aL8L
aa(lp1294
L-88L
aL8L
aa(lp1295
L-80L
aL8L
aa(lp1296
L-68L
aL4L
aa(lp1297
L-64L
aL8L
aa(lp1298
L-16L
aL8L
aa(lp1299
L-49L
aL1L
aa(lp1300
L-48L
aL8L
aa(lp1301
L8L
aL8L
aa(lp1302
L-40L
aL8L
aasS'__do_global_dtors_aux'
p1303
(lp1304
(lp1305
L-3L
aL8L
aasS'build_range_exp'
p1306
(lp1307
(lp1308
L-96L
aL8L
aa(lp1309
L-64L
aL8L
aa(lp1310
L-48L
aL8L
aa(lp1311
L-88L
aL8L
aa(lp1312
L-32L
aL8L
aa(lp1313
L-20L
aL4L
aa(lp1314
L-16L
aL4L
aa(lp1315
L-80L
aL8L
aa(lp1316
L-56L
aL8L
aa(lp1317
L-12L
aL4L
aa(lp1318
L-40L
aL8L
aa(lp1319
L-72L
aL8L
aa(lp1320
L-8L
aL4L
aa(lp1321
L-4L
aL4L
aa(lp1322
L8L
aL8L
aasS'quotearg_mem'
p1323
(lp1324
(lp1325
L-16L
aL8L
aa(lp1326
L-8L
aL8L
aa(lp1327
L8L
aL8L
aasS'c_ispunct'
p1328
(lp1329
(lp1330
L-4L
aL4L
aa(lp1331
L8L
aL8L
aasS're_node_set_compare'
p1332
(lp1333
(lp1334
L-32L
aL8L
aa(lp1335
L-24L
aL8L
aa(lp1336
L8L
aL8L
aa(lp1337
L-8L
aL8L
aasS'group_nodes_into_DFAstates'
p1338
(lp1339
(lp1340
L-240L
aL8L
aa(lp1341
L-48L
aL8L
aa(lp1342
L-105L
aL1L
aa(lp1343
L-232L
aL8L
aa(lp1344
L-97L
aL1L
aa(lp1345
L-96L
aL4L
aa(lp1346
L-88L
aL8L
aa(lp1347
L-92L
aL4L
aa(lp1348
L-216L
aL8L
aa(lp1349
L-208L
aL8L
aa(lp1350
L-72L
aL8L
aa(lp1351
L-64L
aL8L
aa(lp1352
L-104L
aL4L
aa(lp1353
L-56L
aL8L
aa(lp1354
L-176L
aL8L
aa(lp1355
L-80L
aL8L
aa(lp1356
L-40L
aL8L
aa(lp1357
L-144L
aL8L
aa(lp1358
L-32L
aL8L
aa(lp1359
L-24L
aL8L
aa(lp1360
L-16L
aL8L
aa(lp1361
L-224L
aL8L
aa(lp1362
L-8L
aL8L
aa(lp1363
L8L
aL8L
aasS're_node_set_insert_last'
p1364
(lp1365
(lp1366
L-32L
aL8L
aa(lp1367
L-24L
aL8L
aa(lp1368
L8L
aL8L
aa(lp1369
L-8L
aL8L
aasS'parse_bracket_exp'
p1370
(lp1371
(lp1372
L-176L
aL4L
aa(lp1373
L-44L
aL4L
aa(lp1374
L-296L
aL8L
aa(lp1375
L-37L
aL1L
aa(lp1376
L-36L
aL4L
aa(lp1377
L-288L
aL8L
aa(lp1378
L-280L
aL8L
aa(lp1379
L-29L
aL1L
aa(lp1380
L-28L
aL4L
aa(lp1381
L-152L
aL8L
aa(lp1382
L8L
aL8L
aa(lp1383
L-272L
aL8L
aa(lp1384
L-128L
aL8L
aa(lp1385
L-9L
aL1L
aa(lp1386
L-264L
aL8L
aa(lp1387
L-64L
aL8L
aa(lp1388
L-256L
aL1L
aa(lp1389
L-168L
aL8L
aa(lp1390
L-120L
aL8L
aa(lp1391
L-8L
aL8L
aa(lp1392
L-112L
aL8L
aa(lp1393
L-144L
aL8L
aa(lp1394
L-104L
aL1L
aa(lp1395
L-224L
aL1L
aa(lp1396
L-56L
aL8L
aa(lp1397
L-88L
aL8L
aa(lp1398
L-24L
aL8L
aa(lp1399
L-80L
aL8L
aa(lp1400
L-160L
aL4L
aa(lp1401
L-68L
aL4L
aa(lp1402
L-192L
aL1L
aa(lp1403
L-136L
aL8L
aa(lp1404
L-184L
aL1L
aasS'rpl_re_match'
p1405
(lp1406
(lp1407
L-16L
aL8L
aa(lp1408
L-40L
aL8L
aa(lp1409
L-32L
aL8L
aa(lp1410
L-8L
aL8L
aa(lp1411
L8L
aL8L
aa(lp1412
L-24L
aL8L
aasS're_node_set_init_1'
p1413
(lp1414
(lp1415
L-16L
aL8L
aa(lp1416
L-8L
aL8L
aa(lp1417
L8L
aL8L
aasS'xmalloc'
p1418
(lp1419
(lp1420
L-24L
aL8L
aa(lp1421
L-8L
aL8L
aa(lp1422
L8L
aL8L
aasS'quotearg_custom'
p1423
(lp1424
(lp1425
L-24L
aL8L
aa(lp1426
L-16L
aL8L
aa(lp1427
L8L
aL8L
aa(lp1428
L-8L
aL8L
aasS'__libc_csu_init'
p1429
(lp1430
sS'build_charclass_op'
p1431
(lp1432
(lp1433
L-112L
aL8L
aa(lp1434
L-80L
aL8L
aa(lp1435
L-16L
aL8L
aa(lp1436
L-64L
aL8L
aa(lp1437
L-72L
aL8L
aa(lp1438
L-48L
aL8L
aa(lp1439
L-100L
aL1L
aa(lp1440
L-32L
aL8L
aa(lp1441
L-96L
aL8L
aa(lp1442
L-56L
aL1L
aa(lp1443
L8L
aL8L
aa(lp1444
L-88L
aL8L
aa(lp1445
L-40L
aL8L
aa(lp1446
L-20L
aL4L
aa(lp1447
L-8L
aL8L
aasS'set_custom_quoting'
p1448
(lp1449
(lp1450
L-24L
aL8L
aa(lp1451
L-16L
aL8L
aa(lp1452
L8L
aL8L
aa(lp1453
L-8L
aL8L
aasS'rpl_fclose'
p1454
(lp1455
(lp1456
L-24L
aL8L
aa(lp1457
L8L
aL8L
aa(lp1458
L-12L
aL4L
aa(lp1459
L-8L
aL4L
aa(lp1460
L-4L
aL4L
aasS'register_tm_clones'
p1461
(lp1462
(lp1463
L-3L
aL8L
aasS'rpl_regcomp'
p1464
(lp1465
(lp1466
L-16L
aL8L
aa(lp1467
L-4L
aL4L
aa(lp1468
L-36L
aL4L
aa(lp1469
L-32L
aL8L
aa(lp1470
L8L
aL8L
aa(lp1471
L-24L
aL8L
aasS'free_state'
p1472
(lp1473
(lp1474
L-8L
aL8L
aa(lp1475
L8L
aL8L
aasS'init_word_char'
p1476
(lp1477
(lp1478
L-32L
aL8L
aa(lp1479
L-56L
aL8L
aa(lp1480
L-48L
aL8L
aa(lp1481
L-24L
aL8L
aa(lp1482
L-12L
aL4L
aa(lp1483
L-8L
aL4L
aa(lp1484
L-40L
aL8L
aa(lp1485
L8L
aL8L
aa(lp1486
L-4L
aL4L
aasS'mpz_get_str'
p1487
(lp1488
(lp1489
L-32L
aL1L
aa(lp1490
L-56L
aL8L
aa(lp1491
L8L
aL8L
aa(lp1492
L-44L
aL4L
aa(lp1493
L-40L
aL8L
aasS'get_charset_aliases'
p1494
(lp1495
(lp1496
L-256L
aL1L
aa(lp1497
L-192L
aL1L
aa(lp1498
L-32L
aL8L
aa(lp1499
L-92L
aL4L
aa(lp1500
L-120L
aL8L
aa(lp1501
L-128L
aL8L
aa(lp1502
L-16L
aL8L
aa(lp1503
L-48L
aL8L
aa(lp1504
L-40L
aL8L
aa(lp1505
L-112L
aL8L
aa(lp1506
L-88L
aL8L
aa(lp1507
L-8L
aL8L
aa(lp1508
L-76L
aL4L
aa(lp1509
L-104L
aL8L
aa(lp1510
L-60L
aL4L
aa(lp1511
L-72L
aL8L
aa(lp1512
L-56L
aL8L
aa(lp1513
L-24L
aL8L
aa(lp1514
L8L
aL8L
aasS'free_token'
p1515
(lp1516
(lp1517
L-8L
aL8L
aa(lp1518
L8L
aL8L
aasS'is_basic'
p1519
(lp1520
(lp1521
L-4L
aL1L
aa(lp1522
L8L
aL8L
aasS'c_isspace'
p1523
(lp1524
(lp1525
L-4L
aL4L
aa(lp1526
L8L
aL8L
aasS'build_collating_symbol'
p1527
(lp1528
(lp1529
L-48L
aL8L
aa(lp1530
L-32L
aL8L
aa(lp1531
L-40L
aL8L
aa(lp1532
L-8L
aL8L
aa(lp1533
L8L
aL8L
aa(lp1534
L-24L
aL8L
aasS'imaxtostr'
p1535
(lp1536
(lp1537
L-32L
aL8L
aa(lp1538
L-24L
aL8L
aa(lp1539
L8L
aL8L
aa(lp1540
L-8L
aL8L
aasS'mbschr'
p1541
(lp1542
(lp1543
L-48L
aL8L
aa(lp1544
L-32L
aL1L
aa(lp1545
L-76L
aL4L
aa(lp1546
L-72L
aL8L
aa(lp1547
L-64L
aL1L
aa(lp1548
L-40L
aL8L
aa(lp1549
L-28L
aL4L
aa(lp1550
L8L
aL8L
aa(lp1551
L-52L
aL1L
aasS'mpz_clear'
p1552
(lp1553
(lp1554
L-8L
aL8L
aa(lp1555
L8L
aL8L
aasS'c_isxdigit'
p1556
(lp1557
(lp1558
L-4L
aL4L
aa(lp1559
L8L
aL8L
aasS'quote_n'
p1560
(lp1561
(lp1562
L-16L
aL8L
aa(lp1563
L-4L
aL4L
aa(lp1564
L8L
aL8L
aasS'rpl_re_search_2'
p1565
(lp1566
(lp1567
L-48L
aL8L
aa(lp1568
L-16L
aL8L
aa(lp1569
L-40L
aL8L
aa(lp1570
L16L
aL8L
aa(lp1571
L32L
aL8L
aa(lp1572
L-32L
aL8L
aa(lp1573
L-8L
aL8L
aa(lp1574
L8L
aL8L
aa(lp1575
L-24L
aL8L
aa(lp1576
L24L
aL8L
aasS'mbs_offset_to_chars'
p1577
(lp1578
(lp1579
L-96L
aL8L
aa(lp1580
L-64L
aL8L
aa(lp1581
L-48L
aL1L
aa(lp1582
L-88L
aL8L
aa(lp1583
L-16L
aL8L
aa(lp1584
L-80L
aL1L
aa(lp1585
L-56L
aL8L
aa(lp1586
L-44L
aL4L
aa(lp1587
L-8L
aL8L
aa(lp1588
L8L
aL8L
aa(lp1589
L-68L
aL1L
aasS'extend_buffers'
p1590
(lp1591
(lp1592
L-44L
aL4L
aa(lp1593
L-40L
aL8L
aa(lp1594
L-8L
aL8L
aa(lp1595
L8L
aL8L
aa(lp1596
L-24L
aL8L
aa(lp1597
L-12L
aL4L
aasS'version_etc_arn'
p1598
(lp1599
(lp1600
L-128L
aL8L
aa(lp1601
L-96L
aL8L
aa(lp1602
L-80L
aL8L
aa(lp1603
L-120L
aL8L
aa(lp1604
L-64L
aL8L
aa(lp1605
L-112L
aL8L
aa(lp1606
L-88L
aL8L
aa(lp1607
L-72L
aL8L
aa(lp1608
L-104L
aL8L
aa(lp1609
L-56L
aL8L
aa(lp1610
L8L
aL8L
aasS'str_value'
p1611
(lp1612
(lp1613
L-24L
aL8L
aa(lp1614
L-8L
aL8L
aa(lp1615
L8L
aL8L
aasS'looks_like_integer'
p1616
(lp1617
(lp1618
L-8L
aL8L
aa(lp1619
L8L
aL8L
aasS'check_subexp_limits'
p1620
(lp1621
(lp1622
L-144L
aL8L
aa(lp1623
L-112L
aL8L
aa(lp1624
L8L
aL8L
aa(lp1625
L-32L
aL8L
aa(lp1626
L-24L
aL8L
aa(lp1627
L-48L
aL8L
aa(lp1628
L-136L
aL8L
aa(lp1629
L-80L
aL8L
aa(lp1630
L-16L
aL8L
aa(lp1631
L-64L
aL4L
aa(lp1632
L-128L
aL8L
aa(lp1633
L-104L
aL8L
aa(lp1634
L-60L
aL4L
aa(lp1635
L-40L
aL8L
aa(lp1636
L-120L
aL8L
aa(lp1637
L-72L
aL8L
aa(lp1638
L-8L
aL8L
aa(lp1639
L-84L
aL4L
aa(lp1640
L-56L
aL8L
aasS'check_halt_node_context'
p1641
(lp1642
(lp1643
L-36L
aL4L
aa(lp1644
L-4L
aL4L
aa(lp1645
L-32L
aL8L
aa(lp1646
L8L
aL8L
aa(lp1647
L-24L
aL8L
aa(lp1648
L-8L
aL4L
aasS'free_fail_stack_return'
p1649
(lp1650
(lp1651
L-24L
aL8L
aa(lp1652
L-8L
aL8L
aa(lp1653
L8L
aL8L
aasS'check_dst_limits'
p1654
(lp1655
(lp1656
L-112L
aL8L
aa(lp1657
L-80L
aL8L
aa(lp1658
L-16L
aL8L
aa(lp1659
L8L
aL8L
aa(lp1660
L-64L
aL8L
aa(lp1661
L-104L
aL8L
aa(lp1662
L-48L
aL8L
aa(lp1663
L-32L
aL8L
aa(lp1664
L-96L
aL8L
aa(lp1665
L-72L
aL8L
aa(lp1666
L-8L
aL8L
aa(lp1667
L-56L
aL8L
aa(lp1668
L-88L
aL8L
aa(lp1669
L-40L
aL8L
aa(lp1670
L-24L
aL8L
aasS'parse_bracket_element'
p1671
(lp1672
(lp1673
L-80L
aL8L
aa(lp1674
L-48L
aL8L
aa(lp1675
L-32L
aL1L
aa(lp1676
L-72L
aL8L
aa(lp1677
L-4L
aL4L
aa(lp1678
L16L
aL4L
aa(lp1679
L-64L
aL1L
aa(lp1680
L-40L
aL8L
aa(lp1681
L-60L
aL4L
aa(lp1682
L-24L
aL1L
aa(lp1683
L-56L
aL8L
aa(lp1684
L8L
aL8L
aasS'fetch_token'
p1685
(lp1686
(lp1687
L-24L
aL8L
aa(lp1688
L-16L
aL8L
aa(lp1689
L8L
aL8L
aa(lp1690
L-8L
aL8L
aasS'match_ctx_clean'
p1691
(lp1692
(lp1693
L-16L
aL8L
aa(lp1694
L-40L
aL8L
aa(lp1695
L-32L
aL8L
aa(lp1696
L-8L
aL8L
aa(lp1697
L8L
aL8L
aa(lp1698
L-24L
aL8L
aasS'bitset_empty'
p1699
(lp1700
(lp1701
L-8L
aL8L
aa(lp1702
L8L
aL8L
aasS'c_isalpha'
p1703
(lp1704
(lp1705
L-4L
aL4L
aa(lp1706
L8L
aL8L
aasS'mpz_get_ui'
p1707
(lp1708
(lp1709
L-8L
aL8L
aa(lp1710
L8L
aL8L
aasS'free_dfa_content'
p1711
(lp1712
(lp1713
L-16L
aL8L
aa(lp1714
L-40L
aL8L
aa(lp1715
L-32L
aL8L
aa(lp1716
L-8L
aL8L
aa(lp1717
L8L
aL8L
aa(lp1718
L-24L
aL8L
aasS'set_char_quoting'
p1719
(lp1720
(lp1721
L-48L
aL4L
aa(lp1722
L-16L
aL8L
aa(lp1723
L-44L
aL1L
aa(lp1724
L-40L
aL8L
aa(lp1725
L-1L
aL1L
aa(lp1726
L8L
aL8L
aa(lp1727
L-24L
aL4L
aa(lp1728
L-20L
aL4L
aasS'mbuiter_multi_copy'
p1729
(lp1730
(lp1731
L-16L
aL8L
aa(lp1732
L-8L
aL8L
aa(lp1733
L8L
aL8L
aasS'analyze'
p1734
(lp1735
(lp1736
L-16L
aL8L
aa(lp1737
L-40L
aL8L
aa(lp1738
L-4L
aL4L
aa(lp1739
L8L
aL8L
aa(lp1740
L-24L
aL8L
aasS'c_isgraph'
p1741
(lp1742
(lp1743
L-4L
aL4L
aa(lp1744
L8L
aL8L
aasS'quotearg_n_custom_mem'
p1745
(lp1746
(lp1747
L-80L
aL8L
aa(lp1748
L-64L
aL8L
aa(lp1749
L-16L
aL8L
aa(lp1750
L-104L
aL8L
aa(lp1751
L-48L
aL8L
aa(lp1752
L-68L
aL4L
aa(lp1753
L-32L
aL8L
aa(lp1754
L-96L
aL8L
aa(lp1755
L-56L
aL8L
aa(lp1756
L8L
aL8L
aa(lp1757
L-88L
aL8L
aa(lp1758
L-40L
aL8L
aa(lp1759
L-24L
aL8L
aasS'quotearg_style_mem'
p1760
(lp1761
(lp1762
L-24L
aL8L
aa(lp1763
L-16L
aL8L
aa(lp1764
L-4L
aL4L
aa(lp1765
L8L
aL8L
aasS're_node_set_insert'
p1766
(lp1767
(lp1768
L-32L
aL8L
aa(lp1769
L-24L
aL8L
aa(lp1770
L-16L
aL8L
aa(lp1771
L8L
aL8L
aa(lp1772
L-8L
aL8L
aasS'sift_ctx_init'
p1773
(lp1774
(lp1775
L-16L
aL8L
aa(lp1776
L-40L
aL8L
aa(lp1777
L-32L
aL8L
aa(lp1778
L-8L
aL8L
aa(lp1779
L8L
aL8L
aa(lp1780
L-24L
aL8L
aasS'strintcmp'
p1781
(lp1782
(lp1783
L-16L
aL8L
aa(lp1784
L-8L
aL8L
aa(lp1785
L8L
aL8L
aasS'emit_bug_reporting_address'
p1786
(lp1787
(lp1788
L8L
aL8L
aasS're_string_construct'
p1789
(lp1790
(lp1791
L-64L
aL8L
aa(lp1792
L-32L
aL8L
aa(lp1793
L-24L
aL8L
aa(lp1794
L-52L
aL1L
aa(lp1795
L-48L
aL8L
aa(lp1796
L8L
aL8L
aa(lp1797
L-40L
aL8L
aa(lp1798
L-4L
aL4L
aasS'build_charclass'
p1799
(lp1800
(lp1801
L-96L
aL8L
aa(lp1802
L-64L
aL8L
aa(lp1803
L-48L
aL8L
aa(lp1804
L-88L
aL8L
aa(lp1805
L-32L
aL8L
aa(lp1806
L-20L
aL4L
aa(lp1807
L-80L
aL8L
aa(lp1808
L-56L
aL8L
aa(lp1809
L-40L
aL8L
aa(lp1810
L-72L
aL8L
aa(lp1811
L8L
aL8L
aasS'_getopt_initialize'
p1812
(lp1813
(lp1814
L-32L
aL8L
aa(lp1815
L-24L
aL8L
aa(lp1816
L-16L
aL8L
aa(lp1817
L8L
aL8L
aa(lp1818
L-8L
aL4L
aa(lp1819
L-4L
aL4L
aasS'rpl_getopt_long_only'
p1820
(lp1821
(lp1822
L-24L
aL8L
aa(lp1823
L8L
aL8L
aa(lp1824
L-16L
aL8L
aa(lp1825
L-40L
aL8L
aa(lp1826
L-4L
aL4L
aa(lp1827
L-32L
aL8L
aasS'c_isprint'
p1828
(lp1829
(lp1830
L-4L
aL4L
aa(lp1831
L8L
aL8L
aasS'parse_long_options'
p1832
(lp1833
(lp1834
L-256L
aL8L
aa(lp1835
L-248L
aL8L
aa(lp1836
L-128L
aL16L
aa(lp1837
L-64L
aL16L
aa(lp1838
L-240L
aL8L
aa(lp1839
L-232L
aL8L
aa(lp1840
L-224L
aL8L
aa(lp1841
L-80L
aL16L
aa(lp1842
L-212L
aL4L
aa(lp1843
L-208L
aL4L
aa(lp1844
L8L
aL8L
aa(lp1845
L-204L
aL4L
aa(lp1846
L-200L
aL8L
aa(lp1847
L-192L
aL8L
aa(lp1848
L-96L
aL16L
aa(lp1849
L-184L
aL4L
aa(lp1850
L-180L
aL4L
aa(lp1851
L-176L
aL1L
aa(lp1852
L-32L
aL16L
aa(lp1853
L-48L
aL16L
aa(lp1854
L-112L
aL16L
aa(lp1855
L16L
aL1L
aa(lp1856
L-16L
aL16L
aasS'calc_eclosure_iter'
p1857
(lp1858
(lp1859
L-96L
aL8L
aa(lp1860
L-80L
aL8L
aa(lp1861
L-124L
aL1L
aa(lp1862
L-25L
aL1L
aa(lp1863
L-120L
aL8L
aa(lp1864
L-64L
aL8L
aa(lp1865
L-48L
aL8L
aa(lp1866
L-112L
aL8L
aa(lp1867
L-88L
aL8L
aa(lp1868
L-8L
aL8L
aa(lp1869
L-16L
aL4L
aa(lp1870
L-9L
aL1L
aa(lp1871
L-104L
aL8L
aa(lp1872
L-56L
aL8L
aa(lp1873
L8L
aL8L
aa(lp1874
L-24L
aL8L
aasS're_search_internal'
p1875
(lp1876
(lp1877
L-432L
aL8L
aa(lp1878
L-112L
aL8L
aa(lp1879
L-40L
aL8L
aa(lp1880
L24L
aL8L
aa(lp1881
L-424L
aL8L
aa(lp1882
L-288L
aL8L
aa(lp1883
L-280L
aL8L
aa(lp1884
L-48L
aL8L
aa(lp1885
L16L
aL8L
aa(lp1886
L-80L
aL8L
aa(lp1887
L-408L
aL8L
aa(lp1888
L-400L
aL8L
aa(lp1889
L-192L
aL8L
aa(lp1890
L8L
aL8L
aa(lp1891
L-56L
aL8L
aa(lp1892
L-392L
aL8L
aa(lp1893
L-4L
aL4L
aa(lp1894
L-384L
aL1L
aa(lp1895
L-360L
aL8L
aa(lp1896
L-376L
aL8L
aa(lp1897
L-344L
aL8L
aa(lp1898
L-244L
aL1L
aa(lp1899
L-243L
aL1L
aa(lp1900
L-368L
aL8L
aa(lp1901
L-272L
aL4L
aa(lp1902
L-72L
aL4L
aa(lp1903
L-232L
aL8L
aa(lp1904
L-336L
aL8L
aa(lp1905
L-100L
aL4L
aa(lp1906
L-96L
aL4L
aa(lp1907
L-120L
aL8L
aa(lp1908
L-16L
aL8L
aa(lp1909
L-89L
aL1L
aa(lp1910
L-216L
aL8L
aa(lp1911
L-208L
aL8L
aa(lp1912
L-416L
aL8L
aa(lp1913
L-24L
aL8L
aa(lp1914
L-88L
aL8L
aa(lp1915
L-328L
aL8L
aa(lp1916
L-160L
aL4L
aa(lp1917
L-65L
aL1L
aa(lp1918
L-320L
aL8L
aa(lp1919
L-200L
aL8L
aa(lp1920
L-32L
aL8L
aa(lp1921
L32L
aL4L
aa(lp1922
L-64L
aL8L
aa(lp1923
L-184L
aL8L
aasS'mbuiter_multi_reloc'
p1924
(lp1925
(lp1926
L-16L
aL8L
aa(lp1927
L-8L
aL8L
aa(lp1928
L8L
aL8L
aasS'quotearg_style'
p1929
(lp1930
(lp1931
L-16L
aL8L
aa(lp1932
L-4L
aL4L
aa(lp1933
L8L
aL8L
aasS'parse_expression'
p1934
(lp1935
(lp1936
L-96L
aL8L
aa(lp1937
L-64L
aL8L
aa(lp1938
L-48L
aL8L
aa(lp1939
L-88L
aL8L
aa(lp1940
L-32L
aL8L
aa(lp1941
L-16L
aL8L
aa(lp1942
L-80L
aL8L
aa(lp1943
L-56L
aL8L
aa(lp1944
L8L
aL8L
aa(lp1945
L-40L
aL8L
aa(lp1946
L-72L
aL8L
aa(lp1947
L-24L
aL8L
aa(lp1948
L-8L
aL8L
aasS're_string_fetch_byte_case'
p1949
(lp1950
(lp1951
L-32L
aL8L
aa(lp1952
L-16L
aL8L
aa(lp1953
L-20L
aL4L
aa(lp1954
L8L
aL8L
aasS'transit_state_bkref'
p1955
(lp1956
(lp1957
L-176L
aL8L
aa(lp1958
L-144L
aL8L
aa(lp1959
L-24L
aL8L
aa(lp1960
L-64L
aL8L
aa(lp1961
L-80L
aL8L
aa(lp1962
L-168L
aL8L
aa(lp1963
L-112L
aL8L
aa(lp1964
L-48L
aL8L
aa(lp1965
L-68L
aL4L
aa(lp1966
L-96L
aL8L
aa(lp1967
L-160L
aL1L
aa(lp1968
L-104L
aL8L
aa(lp1969
L-32L
aL8L
aa(lp1970
L-124L
aL4L
aa(lp1971
L-120L
aL8L
aa(lp1972
L-88L
aL8L
aa(lp1973
L-40L
aL8L
aa(lp1974
L8L
aL8L
aa(lp1975
L-56L
aL8L
aasS'rpl_getopt_long'
p1976
(lp1977
(lp1978
L-24L
aL8L
aa(lp1979
L8L
aL8L
aa(lp1980
L-16L
aL8L
aa(lp1981
L-40L
aL8L
aa(lp1982
L-4L
aL4L
aa(lp1983
L-32L
aL8L
aasS'mpz_sub'
p1984
(lp1985
(lp1986
L-16L
aL8L
aa(lp1987
L-56L
aL8L
aa(lp1988
L-48L
aL8L
aa(lp1989
L-40L
aL8L
aa(lp1990
L-24L
aL8L
aa(lp1991
L-8L
aL8L
aa(lp1992
L8L
aL8L
aasS'build_upper_buffer'
p1993
(lp1994
(lp1995
L-12L
aL4L
aa(lp1996
L-40L
aL8L
aa(lp1997
L8L
aL8L
aa(lp1998
L-8L
aL8L
aa(lp1999
L-24L
aL8L
aasS'clone_quoting_options'
p2000
(lp2001
(lp2002
L-24L
aL8L
aa(lp2003
L-16L
aL8L
aa(lp2004
L-4L
aL4L
aa(lp2005
L8L
aL8L
aasS'quotearg_n_style_colon'
p2006
(lp2007
(lp2008
L-144L
aL8L
aa(lp2009
L-112L
aL8L
aa(lp2010
L-48L
aL8L
aa(lp2011
L-96L
aL8L
aa(lp2012
L-136L
aL8L
aa(lp2013
L-80L
aL8L
aa(lp2014
L-16L
aL8L
aa(lp2015
L-68L
aL4L
aa(lp2016
L-64L
aL8L
aa(lp2017
L-128L
aL8L
aa(lp2018
L-104L
aL8L
aa(lp2019
L-24L
aL8L
aa(lp2020
L-32L
aL8L
aa(lp2021
L-40L
aL8L
aa(lp2022
L-120L
aL8L
aa(lp2023
L-72L
aL4L
aa(lp2024
L8L
aL8L
aa(lp2025
L-56L
aL8L
aasS'parse'
p2026
(lp2027
(lp2028
L-80L
aL8L
aa(lp2029
L-48L
aL1L
aa(lp2030
L-64L
aL8L
aa(lp2031
L-72L
aL8L
aa(lp2032
L-16L
aL8L
aa(lp2033
L-32L
aL8L
aa(lp2034
L-24L
aL8L
aa(lp2035
L-56L
aL8L
aa(lp2036
L-8L
aL8L
aa(lp2037
L8L
aL8L
aasS'add_epsilon_src_nodes'
p2038
(lp2039
(lp2040
L-16L
aL8L
aa(lp2041
L-56L
aL8L
aa(lp2042
L-20L
aL4L
aa(lp2043
L-48L
aL8L
aa(lp2044
L-40L
aL8L
aa(lp2045
L-8L
aL8L
aa(lp2046
L8L
aL8L
aasS'quotearg_n_mem'
p2047
(lp2048
(lp2049
L-24L
aL8L
aa(lp2050
L-16L
aL8L
aa(lp2051
L-4L
aL4L
aa(lp2052
L8L
aL8L
aasS'set_quoting_flags'
p2053
(lp2054
(lp2055
L-28L
aL4L
aa(lp2056
L-4L
aL4L
aa(lp2057
L-24L
aL8L
aa(lp2058
L8L
aL8L
aasS'set_regs'
p2059
(lp2060
(lp2061
L-128L
aL8L
aa(lp2062
L-112L
aL8L
aa(lp2063
L-8L
aL8L
aa(lp2064
L-48L
aL8L
aa(lp2065
L-64L
aL8L
aa(lp2066
L-120L
aL8L
aa(lp2067
L-96L
aL8L
aa(lp2068
L-16L
aL8L
aa(lp2069
L-25L
aL1L
aa(lp2070
L-148L
aL1L
aa(lp2071
L-80L
aL1L
aa(lp2072
L-144L
aL8L
aa(lp2073
L-104L
aL8L
aa(lp2074
L-136L
aL8L
aa(lp2075
L-56L
aL8L
aa(lp2076
L-24L
aL8L
aa(lp2077
L8L
aL8L
aa(lp2078
L-40L
aL8L
aasS're_string_skip_chars'
p2079
(lp2080
(lp2081
L-16L
aL8L
aa(lp2082
L-32L
aL8L
aa(lp2083
L-44L
aL4L
aa(lp2084
L-72L
aL8L
aa(lp2085
L-64L
aL8L
aa(lp2086
L-40L
aL8L
aa(lp2087
L-56L
aL8L
aa(lp2088
L-8L
aL8L
aa(lp2089
L-20L
aL4L
aa(lp2090
L8L
aL8L
aasS'check_arrival_expand_ecl'
p2091
(lp2092
(lp2093
L-64L
aL8L
aa(lp2094
L-48L
aL8L
aa(lp2095
L-92L
aL4L
aa(lp2096
L8L
aL8L
aa(lp2097
L-88L
aL8L
aa(lp2098
L-32L
aL8L
aa(lp2099
L-80L
aL8L
aa(lp2100
L-56L
aL8L
aa(lp2101
L-12L
aL4L
aa(lp2102
L-40L
aL8L
aa(lp2103
L-72L
aL8L
aa(lp2104
L-24L
aL8L
aa(lp2105
L-8L
aL8L
aasS're_string_char_size_at'
p2106
(lp2107
(lp2108
L-32L
aL8L
aa(lp2109
L-24L
aL8L
aa(lp2110
L-4L
aL4L
aa(lp2111
L8L
aL8L
aasS're_string_reconstruct'
p2112
(lp2113
(lp2114
L-48L
aL8L
aa(lp2115
L-40L
aL8L
aa(lp2116
L-164L
aL4L
aa(lp2117
L-160L
aL8L
aa(lp2118
L-152L
aL8L
aa(lp2119
L-24L
aL8L
aa(lp2120
L-16L
aL8L
aa(lp2121
L-8L
aL8L
aa(lp2122
L-130L
aL1L
aa(lp2123
L-124L
aL4L
aa(lp2124
L-120L
aL1L
aa(lp2125
L-112L
aL4L
aa(lp2126
L-108L
aL4L
aa(lp2127
L-104L
aL8L
aa(lp2128
L-96L
aL8L
aa(lp2129
L8L
aL8L
aa(lp2130
L-88L
aL8L
aa(lp2131
L-80L
aL8L
aa(lp2132
L-32L
aL8L
aa(lp2133
L-72L
aL4L
aa(lp2134
L-68L
aL4L
aa(lp2135
L-64L
aL8L
aa(lp2136
L-56L
aL8L
aasS'postorder_0'
p2137
(lp2138
(lp2139
L-56L
aL8L
aa(lp2140
L-48L
aL8L
aa(lp2141
L-40L
aL8L
aa(lp2142
L-12L
aL4L
aa(lp2143
L-24L
aL8L
aa(lp2144
L-8L
aL8L
aa(lp2145
L8L
aL8L
aasS'xstrtoimax'
p2146
(lp2147
(lp2148
L-64L
aL8L
aa(lp2149
L-32L
aL1L
aa(lp2150
L-88L
aL8L
aa(lp2151
L-16L
aL4L
aa(lp2152
L-80L
aL8L
aa(lp2153
L-56L
aL8L
aa(lp2154
L-12L
aL4L
aa(lp2155
L-4L
aL4L
aa(lp2156
L8L
aL8L
aa(lp2157
L-40L
aL8L
aa(lp2158
L-24L
aL8L
aa(lp2159
L-68L
aL4L
aa(lp2160
L-8L
aL4L
aasS'rpl_mbrtowc'
p2161
(lp2162
(lp2163
L-48L
aL8L
aa(lp2164
L-16L
aL1L
aa(lp2165
L-9L
aL1L
aa(lp2166
L-40L
aL8L
aa(lp2167
L-32L
aL8L
aa(lp2168
L-8L
aL8L
aa(lp2169
L8L
aL8L
aa(lp2170
L-24L
aL8L
aasS'x2realloc'
p2171
(lp2172
(lp2173
L-16L
aL8L
aa(lp2174
L-8L
aL8L
aa(lp2175
L8L
aL8L
aasS'parse_dup_op'
p2176
(lp2177
(lp2178
L-128L
aL8L
aa(lp2179
L-96L
aL8L
aa(lp2180
L-16L
aL8L
aa(lp2181
L-8L
aL8L
aa(lp2182
L-80L
aL8L
aa(lp2183
L-120L
aL8L
aa(lp2184
L-48L
aL8L
aa(lp2185
L-32L
aL8L
aa(lp2186
L-112L
aL8L
aa(lp2187
L-88L
aL8L
aa(lp2188
L-24L
aL8L
aa(lp2189
L-72L
aL8L
aa(lp2190
L-104L
aL8L
aa(lp2191
L-56L
aL8L
aa(lp2192
L8L
aL8L
aa(lp2193
L-40L
aL8L
aasS'rpl_re_match_2'
p2194
(lp2195
(lp2196
L-48L
aL8L
aa(lp2197
L-16L
aL8L
aa(lp2198
L-40L
aL8L
aa(lp2199
L16L
aL8L
aa(lp2200
L-32L
aL8L
aa(lp2201
L-8L
aL8L
aa(lp2202
L8L
aL8L
aa(lp2203
L-24L
aL8L
aa(lp2204
L24L
aL8L
aasS'version_etc'
p2205
(lp2206
(lp2207
L-240L
aL8L
aa(lp2208
L16L
aL1L
aa(lp2209
L-232L
aL8L
aa(lp2210
L-112L
aL16L
aa(lp2211
L-48L
aL16L
aa(lp2212
L-224L
aL8L
aa(lp2213
L-216L
aL8L
aa(lp2214
L-80L
aL16L
aa(lp2215
L-128L
aL16L
aa(lp2216
L-200L
aL4L
aa(lp2217
L-64L
aL16L
aa(lp2218
L-196L
aL4L
aa(lp2219
L-192L
aL8L
aa(lp2220
L-184L
aL8L
aa(lp2221
L-176L
aL1L
aa(lp2222
L-144L
aL8L
aa(lp2223
L-32L
aL16L
aa(lp2224
L-16L
aL16L
aa(lp2225
L-96L
aL16L
aa(lp2226
L-136L
aL8L
aa(lp2227
L8L
aL8L
aasS'c_isalnum'
p2228
(lp2229
(lp2230
L-4L
aL4L
aa(lp2231
L8L
aL8L
aasS'check_node_accept'
p2232
(lp2233
(lp2234
L-40L
aL8L
aa(lp2235
L-1L
aL1L
aa(lp2236
L-32L
aL8L
aa(lp2237
L-8L
aL4L
aa(lp2238
L8L
aL8L
aa(lp2239
L-24L
aL8L
aasS'build_wcs_upper_buffer'
p2240
(lp2241
(lp2242
L-96L
aL8L
aa(lp2243
L-216L
aL8L
aa(lp2244
L-84L
aL4L
aa(lp2245
L-80L
aL8L
aa(lp2246
L-72L
aL8L
aa(lp2247
L-200L
aL4L
aa(lp2248
L-196L
aL4L
aa(lp2249
L-192L
aL1L
aa(lp2250
L-60L
aL4L
aa(lp2251
L-56L
aL8L
aa(lp2252
L-48L
aL8L
aa(lp2253
L-36L
aL4L
aa(lp2254
L-32L
aL8L
aa(lp2255
L-24L
aL8L
aa(lp2256
L-16L
aL8L
aa(lp2257
L-8L
aL8L
aa(lp2258
L-128L
aL8L
aa(lp2259
L-120L
aL8L
aa(lp2260
L8L
aL8L
aa(lp2261
L-108L
aL4L
aa(lp2262
L-104L
aL4L
aa(lp2263
L-100L
aL4L
aasS're_node_set_init_copy'
p2264
(lp2265
(lp2266
L-16L
aL8L
aa(lp2267
L-8L
aL8L
aa(lp2268
L8L
aL8L
aasS'calc_state_hash'
p2269
(lp2270
(lp2271
L-28L
aL4L
aa(lp2272
L-24L
aL8L
aa(lp2273
L-16L
aL8L
aa(lp2274
L-8L
aL8L
aa(lp2275
L8L
aL8L
aasS'process_long_option'
p2276
(lp2277
(lp2278
L-96L
aL8L
aa(lp2279
L-80L
aL8L
aa(lp2280
L24L
aL4L
aa(lp2281
L-60L
aL4L
aa(lp2282
L-32L
aL8L
aa(lp2283
L-120L
aL8L
aa(lp2284
L-64L
aL4L
aa(lp2285
L32L
aL8L
aa(lp2286
L-84L
aL4L
aa(lp2287
L-48L
aL4L
aa(lp2288
L-112L
aL8L
aa(lp2289
L-88L
aL4L
aa(lp2290
L16L
aL8L
aa(lp2291
L-44L
aL4L
aa(lp2292
L-24L
aL8L
aa(lp2293
L-104L
aL8L
aa(lp2294
L-56L
aL8L
aa(lp2295
L8L
aL8L
aa(lp2296
L-68L
aL4L
aa(lp2297
L-40L
aL8L
aasS'update_regs'
p2298
(lp2299
(lp2300
L-80L
aL8L
aa(lp2301
L-48L
aL8L
aa(lp2302
L-72L
aL8L
aa(lp2303
L-16L
aL8L
aa(lp2304
L-4L
aL4L
aa(lp2305
L-64L
aL8L
aa(lp2306
L-40L
aL8L
aa(lp2307
L-24L
aL8L
aa(lp2308
L-56L
aL8L
aa(lp2309
L8L
aL8L
aasS'sub_4188A8'
p2310
(lp2311
(lp2312
L-128L
aL8L
aa(lp2313
L-96L
aL1L
aa(lp2314
L-112L
aL8L
aa(lp2315
L-16L
aL8L
aa(lp2316
L-120L
aL8L
aa(lp2317
L-64L
aL8L
aa(lp2318
L-32L
aL8L
aa(lp2319
L-80L
aL8L
aa(lp2320
L-56L
aL8L
aa(lp2321
L-44L
aL4L
aa(lp2322
L-8L
aL8L
aa(lp2323
L-104L
aL8L
aa(lp2324
L-40L
aL8L
aa(lp2325
L8L
aL8L
aa(lp2326
L-24L
aL8L
aasS'check_arrival_add_next_nodes'
p2327
(lp2328
(lp2329
L-144L
aL8L
aa(lp2330
L-112L
aL1L
aa(lp2331
L-48L
aL8L
aa(lp2332
L-24L
aL8L
aa(lp2333
L-96L
aL8L
aa(lp2334
L-136L
aL8L
aa(lp2335
L-80L
aL4L
aa(lp2336
L-73L
aL1L
aa(lp2337
L-64L
aL8L
aa(lp2338
L-128L
aL8L
aa(lp2339
L-104L
aL8L
aa(lp2340
L-28L
aL4L
aa(lp2341
L-40L
aL8L
aa(lp2342
L-120L
aL8L
aa(lp2343
L-72L
aL8L
aa(lp2344
L8L
aL8L
aa(lp2345
L-56L
aL8L
aasS'quotearg_n_style'
p2346
(lp2347
(lp2348
L-80L
aL8L
aa(lp2349
L-72L
aL4L
aa(lp2350
L-68L
aL4L
aa(lp2351
L-64L
aL1L
aa(lp2352
L8L
aL8L
aasS'mpz_add'
p2353
(lp2354
(lp2355
L-16L
aL8L
aa(lp2356
L-56L
aL8L
aa(lp2357
L-48L
aL8L
aa(lp2358
L-40L
aL8L
aa(lp2359
L-24L
aL8L
aa(lp2360
L-8L
aL8L
aa(lp2361
L8L
aL8L
aasS're_node_set_add_intersect'
p2362
(lp2363
(lp2364
L-64L
aL8L
aa(lp2365
L-48L
aL8L
aa(lp2366
L-88L
aL8L
aa(lp2367
L-32L
aL8L
aa(lp2368
L-16L
aL8L
aa(lp2369
L-80L
aL8L
aa(lp2370
L-56L
aL8L
aa(lp2371
L8L
aL8L
aa(lp2372
L-40L
aL8L
aa(lp2373
L-72L
aL8L
aa(lp2374
L-24L
aL8L
aa(lp2375
L-8L
aL8L
aasS'register_state'
p2376
(lp2377
(lp2378
L-48L
aL8L
aa(lp2379
L-32L
aL8L
aa(lp2380
L-12L
aL4L
aa(lp2381
L-72L
aL8L
aa(lp2382
L-64L
aL8L
aa(lp2383
L-40L
aL8L
aa(lp2384
L-24L
aL8L
aa(lp2385
L-56L
aL8L
aa(lp2386
L-8L
aL8L
aa(lp2387
L8L
aL8L
aasS'c_isascii'
p2388
(lp2389
(lp2390
L-4L
aL4L
aa(lp2391
L8L
aL8L
aasS'xzalloc'
p2392
(lp2393
(lp2394
L-8L
aL8L
aa(lp2395
L8L
aL8L
aasS'null'
p2396
(lp2397
(lp2398
L-24L
aL8L
aa(lp2399
L-8L
aL8L
aa(lp2400
L8L
aL8L
aasS're_search_2_stub'
p2401
(lp2402
(lp2403
L-64L
aL8L
aa(lp2404
L-48L
aL8L
aa(lp2405
L16L
aL8L
aa(lp2406
L-56L
aL8L
aa(lp2407
L-32L
aL8L
aa(lp2408
L32L
aL8L
aa(lp2409
L-84L
aL1L
aa(lp2410
L-16L
aL8L
aa(lp2411
L-80L
aL8L
aa(lp2412
L-40L
aL8L
aa(lp2413
L24L
aL8L
aa(lp2414
L8L
aL8L
aa(lp2415
L-72L
aL8L
aa(lp2416
L-24L
aL8L
aa(lp2417
L40L
aL4L
aa(lp2418
L-8L
aL8L
aasS'free_charset'
p2419
(lp2420
(lp2421
L-8L
aL8L
aa(lp2422
L8L
aL8L
aasS'optimize_utf8'
p2423
(lp2424
(lp2425
L-14L
aL1L
aa(lp2426
L-13L
aL1L
aa(lp2427
L-12L
aL4L
aa(lp2428
L-40L
aL8L
aa(lp2429
L-8L
aL8L
aa(lp2430
L8L
aL8L
aa(lp2431
L-20L
aL4L
aasS'hard_locale'
p2432
(lp2433
(lp2434
L-16L
aL8L
aa(lp2435
L-20L
aL4L
aa(lp2436
L8L
aL8L
aa(lp2437
L-1L
aL1L
aasS'check_halt_state_context'
p2438
(lp2439
(lp2440
L-12L
aL4L
aa(lp2441
L-40L
aL8L
aa(lp2442
L-32L
aL8L
aa(lp2443
L-8L
aL8L
aa(lp2444
L8L
aL8L
aa(lp2445
L-24L
aL8L
aasS'gettext_quote'
p2446
(lp2447
(lp2448
L-28L
aL4L
aa(lp2449
L-24L
aL8L
aa(lp2450
L-16L
aL8L
aa(lp2451
L8L
aL8L
aa(lp2452
L-8L
aL8L
aasS'check_dst_limits_calc_pos'
p2453
(lp2454
(lp2455
L-64L
aL8L
aa(lp2456
L-32L
aL8L
aa(lp2457
L-56L
aL8L
aa(lp2458
L-48L
aL8L
aa(lp2459
L-24L
aL8L
aa(lp2460
L-12L
aL4L
aa(lp2461
L-8L
aL8L
aa(lp2462
L-40L
aL8L
aa(lp2463
L8L
aL8L
aasS'rpl_regfree'
p2464
(lp2465
(lp2466
L-24L
aL8L
aa(lp2467
L-8L
aL8L
aa(lp2468
L8L
aL8L
aasS're_acquire_state_context'
p2469
(lp2470
(lp2471
L-16L
aL8L
aa(lp2472
L-32L
aL8L
aa(lp2473
L-76L
aL4L
aa(lp2474
L-72L
aL8L
aa(lp2475
L-64L
aL8L
aa(lp2476
L-40L
aL8L
aa(lp2477
L-24L
aL8L
aa(lp2478
L-56L
aL8L
aa(lp2479
L-8L
aL8L
aa(lp2480
L8L
aL8L
aasS'c_iscntrl'
p2481
(lp2482
(lp2483
L-4L
aL4L
aa(lp2484
L8L
aL8L
aasS'toarith'
p2485
(lp2486
(lp2487
L-24L
aL8L
aa(lp2488
L-8L
aL8L
aa(lp2489
L8L
aL8L
aasS'parse_reg_exp'
p2490
(lp2491
(lp2492
L-96L
aL8L
aa(lp2493
L-64L
aL8L
aa(lp2494
L-88L
aL8L
aa(lp2495
L-32L
aL8L
aa(lp2496
L-16L
aL8L
aa(lp2497
L-80L
aL8L
aa(lp2498
L-56L
aL8L
aa(lp2499
L8L
aL8L
aa(lp2500
L-40L
aL8L
aa(lp2501
L-72L
aL8L
aa(lp2502
L-24L
aL8L
aa(lp2503
L-8L
aL8L
aasS'getsize'
p2504
(lp2505
(lp2506
L-24L
aL8L
aa(lp2507
L-8L
aL8L
aa(lp2508
L8L
aL8L
aasS're_node_set_init_union'
p2509
(lp2510
(lp2511
L-16L
aL8L
aa(lp2512
L-56L
aL8L
aa(lp2513
L-48L
aL8L
aa(lp2514
L-40L
aL8L
aa(lp2515
L-24L
aL8L
aa(lp2516
L-8L
aL8L
aa(lp2517
L8L
aL8L
aasS'xstrdup'
p2518
(lp2519
(lp2520
L-8L
aL8L
aa(lp2521
L8L
aL8L
aasS'init_dfa'
p2522
(lp2523
(lp2524
L-80L
aL8L
aa(lp2525
L-48L
aL8L
aa(lp2526
L-12L
aL4L
aa(lp2527
L-72L
aL8L
aa(lp2528
L-20L
aL4L
aa(lp2529
L-16L
aL4L
aa(lp2530
L-32L
aL8L
aa(lp2531
L-40L
aL8L
aa(lp2532
L-8L
aL8L
aa(lp2533
L8L
aL8L
aa(lp2534
L-52L
aL4L
aasS'initialize_exit_failure'
p2535
(lp2536
(lp2537
L-4L
aL4L
aa(lp2538
L8L
aL8L
aasS'xcharalloc'
p2539
(lp2540
(lp2541
L-8L
aL8L
aa(lp2542
L8L
aL8L
aasS'parse_bracket_symbol'
p2543
(lp2544
(lp2545
L-40L
aL8L
aa(lp2546
L-8L
aL4L
aa(lp2547
L8L
aL8L
aa(lp2548
L-1L
aL1L
aa(lp2549
L-32L
aL8L
aa(lp2550
L-24L
aL8L
aa(lp2551
L-9L
aL1L
aasS'quotearg_colon_mem'
p2552
(lp2553
(lp2554
L-16L
aL8L
aa(lp2555
L-8L
aL8L
aa(lp2556
L8L
aL8L
aasS're_node_set_init_2'
p2557
(lp2558
(lp2559
L-24L
aL8L
aa(lp2560
L-16L
aL8L
aa(lp2561
L8L
aL8L
aa(lp2562
L-8L
aL8L
aasS'_getopt_long_only_r'
p2563
(lp2564
(lp2565
L-48L
aL8L
aa(lp2566
L-16L
aL8L
aa(lp2567
L-40L
aL8L
aa(lp2568
L-4L
aL4L
aa(lp2569
L-32L
aL8L
aa(lp2570
L8L
aL8L
aa(lp2571
L-24L
aL8L
aasS'eval3'
p2572
(lp2573
(lp2574
L-16L
aL8L
aa(lp2575
L-4L
aL4L
aa(lp2576
L-36L
aL1L
aa(lp2577
L8L
aL8L
aa(lp2578
L-24L
aL8L
aasS'eval2'
p2579
(lp2580
(lp2581
L-29L
aL1L
aa(lp2582
L-28L
aL4L
aa(lp2583
L-24L
aL8L
aa(lp2584
L-52L
aL1L
aa(lp2585
L-48L
aL8L
aa(lp2586
L8L
aL8L
aa(lp2587
L-36L
aL4L
aasS'eval1'
p2588
(lp2589
(lp2590
L-16L
aL8L
aa(lp2591
L-8L
aL8L
aa(lp2592
L-20L
aL1L
aa(lp2593
L8L
aL8L
aasS'match_ctx_add_entry'
p2594
(lp2595
(lp2596
L-32L
aL8L
aa(lp2597
L-56L
aL8L
aa(lp2598
L-48L
aL8L
aa(lp2599
L-24L
aL8L
aa(lp2600
L-40L
aL8L
aa(lp2601
L-8L
aL8L
aa(lp2602
L8L
aL8L
aasS'eval7'
p2603
(lp2604
(lp2605
L-24L
aL8L
aa(lp2606
L-36L
aL1L
aa(lp2607
L8L
aL8L
aasS'eval6'
p2608
(lp2609
(lp2610
L-64L
aL8L
aa(lp2611
L-32L
aL8L
aa(lp2612
L-56L
aL8L
aa(lp2613
L-16L
aL8L
aa(lp2614
L-84L
aL1L
aa(lp2615
L-48L
aL8L
aa(lp2616
L-40L
aL8L
aa(lp2617
L8L
aL8L
aa(lp2618
L-72L
aL8L
aa(lp2619
L-24L
aL8L
aa(lp2620
L-8L
aL8L
aasS'eval5'
p2621
(lp2622
(lp2623
L-16L
aL8L
aa(lp2624
L-8L
aL8L
aa(lp2625
L-36L
aL1L
aa(lp2626
L8L
aL8L
aa(lp2627
L-24L
aL8L
aasS'eval4'
p2628
(lp2629
(lp2630
L-16L
aL8L
aa(lp2631
L-4L
aL4L
aa(lp2632
L-36L
aL1L
aa(lp2633
L8L
aL8L
aa(lp2634
L-24L
aL8L
aasS'quote'
p2635
(lp2636
(lp2637
L-8L
aL8L
aa(lp2638
L8L
aL8L
aasS'duplicate_node_closure'
p2639
(lp2640
(lp2641
L-64L
aL8L
aa(lp2642
L-48L
aL4L
aa(lp2643
L-56L
aL8L
aa(lp2644
L-32L
aL8L
aa(lp2645
L-84L
aL4L
aa(lp2646
L-16L
aL8L
aa(lp2647
L-80L
aL8L
aa(lp2648
L-40L
aL8L
aa(lp2649
L-20L
aL4L
aa(lp2650
L-41L
aL1L
aa(lp2651
L-72L
aL8L
aa(lp2652
L-8L
aL8L
aa(lp2653
L8L
aL8L
aasS're_string_peek_byte_case'
p2654
(lp2655
(lp2656
L-32L
aL8L
aa(lp2657
L-24L
aL8L
aa(lp2658
L8L
aL8L
aa(lp2659
L-12L
aL4L
aa(lp2660
L-8L
aL8L
aasS'free_tree'
p2661
(lp2662
(lp2663
L-16L
aL8L
aa(lp2664
L-8L
aL8L
aa(lp2665
L8L
aL8L
aasS'rpl_getopt_internal'
p2666
(lp2667
(lp2668
L-32L
aL8L
aa(lp2669
L-56L
aL8L
aa(lp2670
L16L
aL4L
aa(lp2671
L-20L
aL4L
aa(lp2672
L-48L
aL8L
aa(lp2673
L-24L
aL4L
aa(lp2674
L-40L
aL8L
aa(lp2675
L8L
aL8L
aa(lp2676
L-4L
aL4L
aasS're_dfa_add_node'
p2677
(lp2678
(lp2679
L-96L
aL8L
aa(lp2680
L-32L
aL8L
aa(lp2681
L-88L
aL8L
aa(lp2682
L-16L
aL8L
aa(lp2683
L-48L
aL8L
aa(lp2684
L-72L
aL8L
aa(lp2685
L8L
aL8L
aa(lp2686
L-56L
aL8L
aa(lp2687
L-40L
aL8L
aa(lp2688
L-24L
aL8L
aa(lp2689
L-8L
aL8L
aasS'mbslen'
p2690
(lp2691
(lp2692
L-64L
aL8L
aa(lp2693
L-48L
aL1L
aa(lp2694
L-88L
aL8L
aa(lp2695
L-80L
aL1L
aa(lp2696
L-56L
aL8L
aa(lp2697
L-44L
aL4L
aa(lp2698
L-8L
aL8L
aa(lp2699
L8L
aL8L
aa(lp2700
L-68L
aL1L
aasS'create_tree'
p2701
(lp2702
(lp2703
L-16L
aL1L
aa(lp2704
L-44L
aL4L
aa(lp2705
L-40L
aL8L
aa(lp2706
L-32L
aL8L
aa(lp2707
L-8L
aL1L
aa(lp2708
L8L
aL8L
aa(lp2709
L-24L
aL8L
aasS'quotearg_colon'
p2710
(lp2711
(lp2712
L-8L
aL8L
aa(lp2713
L8L
aL8L
aasS're_string_context_at'
p2714
(lp2715
(lp2716
L-16L
aL4L
aa(lp2717
L-12L
aL4L
aa(lp2718
L-8L
aL8L
aa(lp2719
L-36L
aL4L
aa(lp2720
L-32L
aL8L
aa(lp2721
L8L
aL8L
aa(lp2722
L-24L
aL8L
aasS'deregister_tm_clones'
p2723
(lp2724
(lp2725
L-3L
aL8L
aasS'eval'
p2726
(lp2727
(lp2728
L-16L
aL8L
aa(lp2729
L-8L
aL8L
aa(lp2730
L-20L
aL1L
aa(lp2731
L8L
aL8L
aasS'emit_ancillary_info'
p2732
(lp2733
(lp2734
L-144L
aL8L
aa(lp2735
L-128L
aL8L
aa(lp2736
L-24L
aL8L
aa(lp2737
L-64L
aL8L
aa(lp2738
L-56L
aL8L
aa(lp2739
L-80L
aL8L
aa(lp2740
L-168L
aL8L
aa(lp2741
L-112L
aL8L
aa(lp2742
L-32L
aL8L
aa(lp2743
L-96L
aL8L
aa(lp2744
L-160L
aL8L
aa(lp2745
L-136L
aL8L
aa(lp2746
L-72L
aL8L
aa(lp2747
L-120L
aL8L
aa(lp2748
L-152L
aL8L
aa(lp2749
L-104L
aL8L
aa(lp2750
L-40L
aL8L
aa(lp2751
L8L
aL8L
aa(lp2752
L-88L
aL8L
aasS'rpl_getopt'
p2753
(lp2754
(lp2755
L-24L
aL8L
aa(lp2756
L-16L
aL8L
aa(lp2757
L-4L
aL4L
aa(lp2758
L8L
aL8L
aasS'sift_states_backward'
p2759
(lp2760
(lp2761
L-64L
aL8L
aa(lp2762
L-32L
aL8L
aa(lp2763
L-48L
aL1L
aa(lp2764
L-56L
aL8L
aa(lp2765
L-16L
aL8L
aa(lp2766
L-8L
aL4L
aa(lp2767
L-40L
aL8L
aa(lp2768
L8L
aL8L
aa(lp2769
L-4L
aL4L
aasS'merge_state_array'
p2770
(lp2771
(lp2772
L-96L
aL8L
aa(lp2773
L-64L
aL1L
aa(lp2774
L-28L
aL4L
aa(lp2775
L-80L
aL8L
aa(lp2776
L-88L
aL8L
aa(lp2777
L-48L
aL8L
aa(lp2778
L-24L
aL8L
aa(lp2779
L-72L
aL8L
aa(lp2780
L8L
aL8L
aasS'bitset_copy'
p2781
(lp2782
(lp2783
L-16L
aL8L
aa(lp2784
L-8L
aL8L
aa(lp2785
L8L
aL8L
aasS'rpl_regerror'
p2786
(lp2787
(lp2788
L-64L
aL8L
aa(lp2789
L-48L
aL8L
aa(lp2790
L-56L
aL8L
aa(lp2791
L-16L
aL8L
aa(lp2792
L-24L
aL8L
aa(lp2793
L-8L
aL8L
aa(lp2794
L8L
aL8L
aa(lp2795
L-36L
aL4L
aasS'xcalloc'
p2796
(lp2797
(lp2798
L-32L
aL8L
aa(lp2799
L-24L
aL8L
aa(lp2800
L8L
aL8L
aa(lp2801
L-8L
aL8L
aasS'build_trtable'
p2802
(lp2803
(lp2804
L-224L
aL8L
aa(lp2805
L-96L
aL8L
aa(lp2806
L-216L
aL8L
aa(lp2807
L-32L
aL8L
aa(lp2808
L-81L
aL1L
aa(lp2809
L-208L
aL8L
aa(lp2810
L-8L
aL8L
aa(lp2811
L-72L
aL8L
aa(lp2812
L-48L
aL8L
aa(lp2813
L-57L
aL1L
aa(lp2814
L-56L
aL8L
aa(lp2815
L-176L
aL1L
aa(lp2816
L-168L
aL8L
aa(lp2817
L-37L
aL1L
aa(lp2818
L-36L
aL4L
aa(lp2819
L-160L
aL8L
aa(lp2820
L-24L
aL8L
aa(lp2821
L-148L
aL4L
aa(lp2822
L-144L
aL8L
aa(lp2823
L-136L
aL8L
aa(lp2824
L-128L
aL8L
aa(lp2825
L-80L
aL8L
aa(lp2826
L-120L
aL8L
aa(lp2827
L-112L
aL8L
aa(lp2828
L8L
aL8L
aa(lp2829
L-104L
aL8L
aasS'bitset_clear'
p2830
(lp2831
(lp2832
L-16L
aL8L
aa(lp2833
L-8L
aL8L
aa(lp2834
L8L
aL8L
aasS'mbs_logical_cspn'
p2835
(lp2836
(lp2837
L-160L
aL8L
aa(lp2838
L-128L
aL8L
aa(lp2839
L-48L
aL1L
aa(lp2840
L-44L
aL4L
aa(lp2841
L-112L
aL1L
aa(lp2842
L-152L
aL8L
aa(lp2843
L-80L
aL1L
aa(lp2844
L-16L
aL8L
aa(lp2845
L-64L
aL8L
aa(lp2846
L-144L
aL1L
aa(lp2847
L-120L
aL8L
aa(lp2848
L-108L
aL4L
aa(lp2849
L-68L
aL1L
aa(lp2850
L-8L
aL8L
aa(lp2851
L-56L
aL8L
aa(lp2852
L8L
aL8L
aa(lp2853
L-132L
aL1L
aasS'quotearg_n'
p2854
(lp2855
(lp2856
L-16L
aL8L
aa(lp2857
L-4L
aL4L
aa(lp2858
L8L
aL8L
aasS'quotearg_custom_mem'
p2859
(lp2860
(lp2861
L-32L
aL8L
aa(lp2862
L-24L
aL8L
aa(lp2863
L-16L
aL8L
aa(lp2864
L8L
aL8L
aa(lp2865
L-8L
aL8L
aasS'mbs_logical_substr'
p2866
(lp2867
(lp2868
L-112L
aL1L
aa(lp2869
L-96L
aL8L
aa(lp2870
L8L
aL8L
aa(lp2871
L-76L
aL4L
aa(lp2872
L-32L
aL8L
aa(lp2873
L-136L
aL8L
aa(lp2874
L-80L
aL1L
aa(lp2875
L-16L
aL8L
aa(lp2876
L-100L
aL1L
aa(lp2877
L-48L
aL8L
aa(lp2878
L-128L
aL8L
aa(lp2879
L-88L
aL8L
aa(lp2880
L-120L
aL8L
aa(lp2881
L-40L
aL8L
aa(lp2882
L-8L
aL8L
aa(lp2883
L-24L
aL8L
aasS'sift_states_iter_mb'
p2884
(lp2885
(lp2886
L-32L
aL8L
aa(lp2887
L-16L
aL8L
aa(lp2888
L-56L
aL8L
aa(lp2889
L-48L
aL8L
aa(lp2890
L-24L
aL8L
aa(lp2891
L-40L
aL8L
aa(lp2892
L8L
aL8L
aa(lp2893
L-4L
aL4L
aasS'c_islower'
p2894
(lp2895
(lp2896
L-4L
aL4L
aa(lp2897
L8L
aL8L
aasS'__do_global_ctors_aux'
p2898
(lp2899
(lp2900
L8L
aL8L
aasS'rpl_fflush'
p2901
(lp2902
(lp2903
L-8L
aL8L
aa(lp2904
L8L
aL8L
aasS'search_duplicated_node'
p2905
(lp2906
(lp2907
L-36L
aL4L
aa(lp2908
L-32L
aL8L
aa(lp2909
L8L
aL8L
aa(lp2910
L-24L
aL8L
aa(lp2911
L-8L
aL8L
aasS'c_isblank'
p2912
(lp2913
(lp2914
L-4L
aL4L
aa(lp2915
L8L
aL8L
aasS'int_value'
p2916
(lp2917
(lp2918
L-24L
aL8L
aa(lp2919
L-8L
aL8L
aa(lp2920
L8L
aL8L
aasS'tostring'
p2921
(lp2922
(lp2923
L-24L
aL8L
aa(lp2924
L-8L
aL8L
aa(lp2925
L8L
aL8L
aasS'clear_ungetc_buffer_preserving_position'
p2926
(lp2927
(lp2928
L-8L
aL8L
aa(lp2929
L8L
aL8L
aasS'docolon'
p2930
(lp2931
(lp2932
L-416L
aL8L
aa(lp2933
L-384L
aL8L
aa(lp2934
L-24L
aL8L
aa(lp2935
L8L
aL8L
aa(lp2936
L-400L
aL8L
aa(lp2937
L-408L
aL8L
aa(lp2938
L-64L
aL8L
aa(lp2939
L-40L
aL8L
aa(lp2940
L-112L
aL8L
aa(lp2941
L-368L
aL1L
aa(lp2942
L-104L
aL8L
aa(lp2943
L-32L
aL8L
aa(lp2944
L-80L
aL8L
aa(lp2945
L-392L
aL8L
aa(lp2946
L-56L
aL1L
aa(lp2947
L-48L
aL8L
aa(lp2948
L-72L
aL8L
aas.