(dp0
S'close_stdout_set_ignore_EPIPE'
p1
(lp2
(lp3
L-4L
aL1L
aa(lp4
L8L
aL8L
aasS'xnmalloc'
p5
(lp6
(lp7
L-16L
aL8L
aa(lp8
L-8L
aL8L
aa(lp9
L8L
aL8L
aasS'version_etc_va'
p10
(lp11
(lp12
L-112L
aL8L
aa(lp13
L-96L
aL8L
aa(lp14
L8L
aL8L
aa(lp15
L-136L
aL8L
aa(lp16
L-128L
aL8L
aa(lp17
L-104L
aL8L
aa(lp18
L-120L
aL8L
aa(lp19
L-8L
aL8L
aasS'is_infinite_or_zerol'
p20
(lp21
(lp22
L-3L
aL8L
aa(lp23
L5L
aL8L
aa(lp24
L13L
aL10L
aasS'quote_n_mem'
p25
(lp26
(lp27
L-24L
aL8L
aa(lp28
L-16L
aL8L
aa(lp29
L-4L
aL4L
aa(lp30
L8L
aL8L
aasS'getcon'
p31
(lp32
(lp33
L-8L
aL8L
aa(lp34
L8L
aL8L
aasS'restorecon'
p35
(lp36
(lp37
L-16L
aL1L
aa(lp38
L-8L
aL8L
aa(lp39
L-12L
aL1L
aa(lp40
L8L
aL8L
aasS'c_toupper'
p41
(lp42
(lp43
L-4L
aL4L
aa(lp44
L8L
aL8L
aasS'setfilecon'
p45
(lp46
(lp47
L-16L
aL8L
aa(lp48
L-8L
aL8L
aa(lp49
L8L
aL8L
aasS'base_len'
p50
(lp51
(lp52
L-24L
aL8L
aa(lp53
L-16L
aL8L
aa(lp54
L8L
aL8L
aa(lp55
L-8L
aL8L
aasS'security_check_context'
p56
(lp57
(lp58
L-8L
aL8L
aa(lp59
L8L
aL8L
aasS'xalloc_die'
p60
(lp61
(lp62
L-3L
aL8L
aa(lp63
L5L
aL8L
aasS'version_etc_ar'
p64
(lp65
(lp66
L-32L
aL8L
aa(lp67
L-56L
aL8L
aa(lp68
L-48L
aL8L
aa(lp69
L-24L
aL8L
aa(lp70
L-40L
aL8L
aa(lp71
L-8L
aL8L
aa(lp72
L8L
aL8L
aasS'quotearg_char'
p73
(lp74
(lp75
L-8L
aL8L
aa(lp76
L-12L
aL1L
aa(lp77
L8L
aL8L
aasS'c_ispunct'
p78
(lp79
(lp80
L-4L
aL4L
aa(lp81
L8L
aL8L
aasS'savewd_save'
p82
(lp83
(lp84
L-24L
aL8L
aa(lp85
L-4L
aL4L
aa(lp86
L8L
aL8L
aasS'smack_set_label_for_self'
p87
(lp88
(lp89
L-8L
aL8L
aa(lp90
L8L
aL8L
aasS'__do_global_ctors_aux'
p91
(lp92
(lp93
L8L
aL8L
aasS'set_program_name'
p94
(lp95
(lp96
L-24L
aL8L
aa(lp97
L-16L
aL8L
aa(lp98
L8L
aL8L
aa(lp99
L-8L
aL8L
aasS'usage'
p100
(lp101
(lp102
L8L
aL8L
aa(lp103
L-20L
aL4L
aasS'main'
p104
(lp105
(lp106
L-112L
aL8L
aa(lp107
L-80L
aL4L
aa(lp108
L-76L
aL1L
aa(lp109
L-72L
aL8L
aa(lp110
L-36L
aL4L
aa(lp111
L-100L
aL4L
aa(lp112
L-32L
aL8L
aa(lp113
L-96L
aL8L
aa(lp114
L-56L
aL8L
aa(lp115
L8L
aL8L
aa(lp116
L-24L
aL8L
aa(lp117
L-88L
aL4L
aa(lp118
L-44L
aL4L
aa(lp119
L-84L
aL4L
aa(lp120
L-40L
aL4L
aasS'getfscreatecon'
p121
(lp122
(lp123
L-8L
aL8L
aa(lp124
L8L
aL8L
aasS'quotearg_alloc_mem'
p125
(lp126
(lp127
L-64L
aL8L
aa(lp128
L-32L
aL8L
aa(lp129
L-16L
aL4L
aa(lp130
L-56L
aL8L
aa(lp131
L-48L
aL8L
aa(lp132
L-24L
aL8L
aa(lp133
L-12L
aL4L
aa(lp134
L-8L
aL8L
aa(lp135
L-40L
aL8L
aa(lp136
L8L
aL8L
aasS'xsum'
p137
(lp138
(lp139
L-32L
aL8L
aa(lp140
L-24L
aL8L
aa(lp141
L8L
aL8L
aa(lp142
L-8L
aL8L
aasS'_getopt_internal_r'
p143
(lp144
(lp145
L-64L
aL8L
aa(lp146
L-28L
aL4L
aa(lp147
L-88L
aL8L
aa(lp148
L-20L
aL4L
aa(lp149
L-21L
aL1L
aa(lp150
L-52L
aL4L
aa(lp151
L16L
aL8L
aa(lp152
L-80L
aL8L
aa(lp153
L-56L
aL4L
aa(lp154
L-40L
aL8L
aa(lp155
L-72L
aL8L
aa(lp156
L8L
aL8L
aa(lp157
L24L
aL4L
aasS'rpl_fcntl'
p158
(lp159
(lp160
L-112L
aL16L
aa(lp161
L-48L
aL16L
aa(lp162
L-232L
aL4L
aa(lp163
L-228L
aL4L
aa(lp164
L16L
aL1L
aa(lp165
L-224L
aL4L
aa(lp166
L-220L
aL4L
aa(lp167
L-216L
aL8L
aa(lp168
L-208L
aL8L
aa(lp169
L-64L
aL16L
aa(lp170
L-200L
aL8L
aa(lp171
L-192L
aL4L
aa(lp172
L-188L
aL4L
aa(lp173
L-184L
aL4L
aa(lp174
L-180L
aL4L
aa(lp175
L-176L
aL1L
aa(lp176
L-80L
aL16L
aa(lp177
L-16L
aL16L
aa(lp178
L-160L
aL8L
aa(lp179
L-152L
aL8L
aa(lp180
L-144L
aL8L
aa(lp181
L-96L
aL16L
aa(lp182
L-136L
aL8L
aa(lp183
L-32L
aL16L
aa(lp184
L-128L
aL16L
aa(lp185
L8L
aL8L
aasS'open_safer'
p186
(lp187
(lp188
L-96L
aL16L
aa(lp189
L-32L
aL16L
aa(lp190
L-220L
aL4L
aa(lp191
L-216L
aL8L
aa(lp192
L-208L
aL4L
aa(lp193
L-204L
aL4L
aa(lp194
L-200L
aL8L
aa(lp195
L-192L
aL8L
aa(lp196
L-48L
aL16L
aa(lp197
L-180L
aL4L
aa(lp198
L16L
aL1L
aa(lp199
L-176L
aL1L
aa(lp200
L-160L
aL8L
aa(lp201
L-64L
aL16L
aa(lp202
L-152L
aL8L
aa(lp203
L-144L
aL8L
aa(lp204
L-136L
aL8L
aa(lp205
L-128L
aL16L
aa(lp206
L-16L
aL16L
aa(lp207
L8L
aL8L
aa(lp208
L-80L
aL16L
aa(lp209
L-112L
aL16L
aasS'c_iscntrl'
p210
(lp211
(lp212
L-4L
aL4L
aa(lp213
L8L
aL8L
aasS'xmemdup'
p214
(lp215
(lp216
L-16L
aL8L
aa(lp217
L-8L
aL8L
aa(lp218
L8L
aL8L
aasS'quotearg_n_custom'
p219
(lp220
(lp221
L-32L
aL8L
aa(lp222
L-24L
aL8L
aa(lp223
L-16L
aL8L
aa(lp224
L8L
aL8L
aa(lp225
L-4L
aL4L
aasS'quotearg_alloc'
p226
(lp227
(lp228
L-24L
aL8L
aa(lp229
L-16L
aL8L
aa(lp230
L8L
aL8L
aa(lp231
L-8L
aL8L
aasS'xrealloc'
p232
(lp233
(lp234
L-16L
aL8L
aa(lp235
L-8L
aL8L
aa(lp236
L8L
aL8L
aasS'quotearg_n_style_mem'
p237
(lp238
(lp239
L-64L
aL1L
aa(lp240
L-88L
aL8L
aa(lp241
L-80L
aL8L
aa(lp242
L8L
aL8L
aa(lp243
L-72L
aL4L
aa(lp244
L-68L
aL4L
aasS'vasnprintf'
p245
(lp246
(lp247
L-2272L
aL10L
aa(lp248
L-1248L
aL8L
aa(lp249
L-1240L
aL8L
aa(lp250
L-2256L
aL8L
aa(lp251
L-2248L
aL8L
aa(lp252
L-196L
aL4L
aa(lp253
L-2240L
aL8L
aa(lp254
L-48L
aL8L
aa(lp255
L-2232L
aL8L
aa(lp256
L-176L
aL8L
aa(lp257
L-1496L
aL8L
aa(lp258
L-168L
aL8L
aa(lp259
L-480L
aL4L
aa(lp260
L-160L
aL8L
aa(lp261
L-224L
aL8L
aa(lp262
L-152L
aL8L
aa(lp263
L-144L
aL8L
aa(lp264
L-136L
aL8L
aa(lp265
L-128L
aL8L
aa(lp266
L-208L
aL8L
aa(lp267
L-116L
aL4L
aa(lp268
L-112L
aL8L
aa(lp269
L-100L
aL4L
aa(lp270
L-608L
aL8L
aa(lp271
L-600L
aL8L
aa(lp272
L-592L
aL8L
aa(lp273
L-584L
aL8L
aa(lp274
L-576L
aL8L
aa(lp275
L-568L
aL4L
aa(lp276
L-564L
aL4L
aa(lp277
L-560L
aL10L
aa(lp278
L-24L
aL8L
aa(lp279
L-40L
aL8L
aa(lp280
L-32L
aL8L
aa(lp281
L-192L
aL10L
aa(lp282
L-536L
aL8L
aa(lp283
L-528L
aL8L
aa(lp284
L-520L
aL8L
aa(lp285
L-512L
aL8L
aa(lp286
L-504L
aL8L
aa(lp287
L-1524L
aL4L
aa(lp288
L-1520L
aL4L
aa(lp289
L-492L
aL4L
aa(lp290
L-488L
aL4L
aa(lp291
L-1510L
aL2L
aa(lp292
L-484L
aL4L
aa(lp293
L-1506L
aL2L
aa(lp294
L-1504L
aL1L
aa(lp295
L-96L
aL8L
aa(lp296
L-476L
aL4L
aa(lp297
L-472L
aL4L
aa(lp298
L-468L
aL4L
aa(lp299
L-464L
aL8L
aa(lp300
L-8L
aL8L
aa(lp301
L-456L
aL8L
aa(lp302
L-448L
aL8L
aa(lp303
L-2224L
aL1L
aa(lp304
L-440L
aL4L
aa(lp305
L-436L
aL4L
aa(lp306
L-432L
aL8L
aa(lp307
L-88L
aL8L
aa(lp308
L-216L
aL8L
aa(lp309
L-424L
aL8L
aa(lp310
L-416L
aL8L
aa(lp311
L-408L
aL8L
aa(lp312
L-394L
aL2L
aa(lp313
L-392L
aL8L
aa(lp314
L-384L
aL4L
aa(lp315
L-80L
aL8L
aa(lp316
L-380L
aL4L
aa(lp317
L-376L
aL8L
aa(lp318
L-368L
aL8L
aa(lp319
L8L
aL8L
aa(lp320
L-360L
aL8L
aa(lp321
L-352L
aL8L
aa(lp322
L-344L
aL8L
aa(lp323
L-336L
aL8L
aa(lp324
L-72L
aL8L
aa(lp325
L-328L
aL8L
aa(lp326
L-320L
aL8L
aa(lp327
L-1264L
aL8L
aa(lp328
L-312L
aL8L
aa(lp329
L-304L
aL8L
aa(lp330
L-296L
aL8L
aa(lp331
L-1516L
aL4L
aa(lp332
L-64L
aL8L
aa(lp333
L-284L
aL4L
aa(lp334
L-280L
aL8L
aa(lp335
L-1256L
aL8L
aa(lp336
L-268L
aL4L
aa(lp337
L-264L
aL8L
aa(lp338
L-252L
aL4L
aa(lp339
L-248L
aL8L
aa(lp340
L-1508L
aL2L
aa(lp341
L-240L
aL8L
aa(lp342
L-56L
aL8L
aa(lp343
L-232L
aL8L
aasS'c_strcasecmp'
p344
(lp345
(lp346
L-48L
aL8L
aa(lp347
L-40L
aL8L
aa(lp348
L8L
aL8L
aa(lp349
L-18L
aL1L
aa(lp350
L-17L
aL1L
aasS'emit_mandatory_arg_note'
p351
(lp352
(lp353
L8L
aL8L
aasS'printf_fetchargs'
p354
(lp355
(lp356
L-32L
aL8L
aa(lp357
L-24L
aL8L
aa(lp358
L-16L
aL8L
aa(lp359
L8L
aL8L
aa(lp360
L-8L
aL8L
aasS'x2nrealloc'
p361
(lp362
(lp363
L-40L
aL8L
aa(lp364
L-32L
aL8L
aa(lp365
L-24L
aL8L
aa(lp366
L-8L
aL8L
aa(lp367
L8L
aL8L
aasS'quoting_options_from_style'
p368
(lp369
(lp370
L-48L
aL8L
aa(lp371
L-32L
aL8L
aa(lp372
L-76L
aL4L
aa(lp373
L-72L
aL8L
aa(lp374
L-16L
aL8L
aa(lp375
L-64L
aL8L
aa(lp376
L-40L
aL8L
aa(lp377
L-24L
aL8L
aa(lp378
L-56L
aL8L
aa(lp379
L8L
aL8L
aasS'octal_to_mode'
p380
(lp381
(lp382
L-4L
aL4L
aa(lp383
L8L
aL8L
aasS'get_quoting_style'
p384
(lp385
(lp386
L-8L
aL8L
aa(lp387
L8L
aL8L
aasS'quotearg_char_mem'
p388
(lp389
(lp390
L-64L
aL8L
aa(lp391
L-48L
aL8L
aa(lp392
L-56L
aL8L
aa(lp393
L-32L
aL8L
aa(lp394
L-84L
aL1L
aa(lp395
L-16L
aL8L
aa(lp396
L-80L
aL8L
aa(lp397
L-40L
aL8L
aa(lp398
L-72L
aL8L
aa(lp399
L-24L
aL8L
aa(lp400
L8L
aL8L
aasS'getfilecon'
p401
(lp402
(lp403
L-16L
aL8L
aa(lp404
L-8L
aL8L
aa(lp405
L8L
aL8L
aasS'close_stdout'
p406
(lp407
(lp408
L-24L
aL8L
aa(lp409
L8L
aL8L
aasS'mkancesdirs'
p410
(lp411
(lp412
L-80L
aL8L
aa(lp413
L-32L
aL4L
aa(lp414
L-44L
aL4L
aa(lp415
L-72L
aL8L
aa(lp416
L-16L
aL8L
aa(lp417
L-37L
aL1L
aa(lp418
L-36L
aL4L
aa(lp419
L-64L
aL8L
aa(lp420
L-24L
aL8L
aa(lp421
L-25L
aL1L
aa(lp422
L-56L
aL8L
aa(lp423
L-8L
aL8L
aa(lp424
L8L
aL8L
aasS'_getopt_long_r'
p425
(lp426
(lp427
L-48L
aL8L
aa(lp428
L-16L
aL8L
aa(lp429
L-40L
aL8L
aa(lp430
L-4L
aL4L
aa(lp431
L-32L
aL8L
aa(lp432
L8L
aL8L
aa(lp433
L-24L
aL8L
aasS'xmax'
p434
(lp435
(lp436
L-16L
aL8L
aa(lp437
L-8L
aL8L
aa(lp438
L8L
aL8L
aasS'se_const'
p439
(lp440
(lp441
L-8L
aL8L
aa(lp442
L8L
aL8L
aasS'_getopt_initialize'
p443
(lp444
(lp445
L-32L
aL8L
aa(lp446
L-24L
aL8L
aa(lp447
L-16L
aL8L
aa(lp448
L8L
aL8L
aa(lp449
L-8L
aL4L
aa(lp450
L-4L
aL4L
aasS'fd_safer'
p451
(lp452
(lp453
L-8L
aL4L
aa(lp454
L-4L
aL4L
aa(lp455
L-20L
aL4L
aa(lp456
L8L
aL8L
aasS'c_isspace'
p457
(lp458
(lp459
L-4L
aL4L
aa(lp460
L8L
aL8L
aasS'c_isxdigit'
p461
(lp462
(lp463
L-4L
aL4L
aa(lp464
L8L
aL8L
aasS'quotearg'
p465
(lp466
(lp467
L-8L
aL8L
aa(lp468
L8L
aL8L
aasS'quotearg_free'
p469
(lp470
(lp471
L-16L
aL8L
aa(lp472
L-4L
aL4L
aa(lp473
L8L
aL8L
aasS'close_stdout_set_file_name'
p474
(lp475
(lp476
L-8L
aL8L
aa(lp477
L8L
aL8L
aasS'fgetfilecon'
p478
(lp479
(lp480
L-16L
aL8L
aa(lp481
L-4L
aL4L
aa(lp482
L8L
aL8L
aasS'rpl_fseeko'
p483
(lp484
(lp485
L-8L
aL8L
aa(lp486
L-36L
aL4L
aa(lp487
L-32L
aL8L
aa(lp488
L8L
aL8L
aa(lp489
L-24L
aL8L
aasS'xnrealloc'
p490
(lp491
(lp492
L-24L
aL8L
aa(lp493
L-16L
aL8L
aa(lp494
L8L
aL8L
aa(lp495
L-8L
aL8L
aasS'quote_mem'
p496
(lp497
(lp498
L-16L
aL8L
aa(lp499
L-8L
aL8L
aa(lp500
L8L
aL8L
aasS'c_isdigit'
p501
(lp502
(lp503
L-4L
aL4L
aa(lp504
L8L
aL8L
aasS'quotearg_buffer_restyled'
p505
(lp506
(lp507
L-64L
aL1L
aa(lp508
L-63L
aL1L
aa(lp509
L-62L
aL1L
aa(lp510
L-61L
aL1L
aa(lp511
L-60L
aL1L
aa(lp512
L-59L
aL1L
aa(lp513
L-58L
aL1L
aa(lp514
L-57L
aL1L
aa(lp515
L-184L
aL4L
aa(lp516
L-180L
aL4L
aa(lp517
L-176L
aL8L
aa(lp518
L-40L
aL8L
aa(lp519
L-168L
aL8L
aa(lp520
L-160L
aL8L
aa(lp521
L-152L
aL8L
aa(lp522
L-56L
aL8L
aa(lp523
L-8L
aL8L
aa(lp524
L-132L
aL4L
aa(lp525
L-128L
aL8L
aa(lp526
L-32L
aL8L
aa(lp527
L-120L
aL8L
aa(lp528
L32L
aL8L
aa(lp529
L-112L
aL8L
aa(lp530
L24L
aL8L
aa(lp531
L-97L
aL1L
aa(lp532
L-96L
aL8L
aa(lp533
L-48L
aL8L
aa(lp534
L16L
aL8L
aa(lp535
L-81L
aL1L
aa(lp536
L-80L
aL8L
aa(lp537
L-24L
aL8L
aa(lp538
L8L
aL8L
aa(lp539
L-66L
aL1L
aa(lp540
L-65L
aL1L
aasS'security_compute_create'
p541
(lp542
(lp543
L-32L
aL8L
aa(lp544
L8L
aL8L
aa(lp545
L-20L
aL2L
aa(lp546
L-16L
aL8L
aa(lp547
L-8L
aL8L
aasS'quotearg_buffer'
p548
(lp549
(lp550
L-48L
aL8L
aa(lp551
L-12L
aL4L
aa(lp552
L-72L
aL8L
aa(lp553
L-64L
aL8L
aa(lp554
L-40L
aL8L
aa(lp555
L-56L
aL8L
aa(lp556
L-24L
aL8L
aa(lp557
L-8L
aL8L
aa(lp558
L8L
aL8L
aasS'close_stream'
p559
(lp560
(lp561
L-24L
aL8L
aa(lp562
L8L
aL8L
aa(lp563
L-3L
aL1L
aa(lp564
L-2L
aL1L
aa(lp565
L-1L
aL1L
aasS'exchange'
p566
(lp567
(lp568
L-64L
aL8L
aa(lp569
L-32L
aL8L
aa(lp570
L-56L
aL8L
aa(lp571
L-4L
aL4L
aa(lp572
L-20L
aL4L
aa(lp573
L-16L
aL4L
aa(lp574
L-24L
aL4L
aa(lp575
L-12L
aL4L
aa(lp576
L-8L
aL4L
aa(lp577
L8L
aL8L
aa(lp578
L-36L
aL4L
aasS'dirchownmod'
p579
(lp580
(lp581
L-176L
aL1L
aa(lp582
L-144L
aL4L
aa(lp583
L8L
aL8L
aa(lp584
L-204L
aL4L
aa(lp585
L-200L
aL4L
aa(lp586
L-148L
aL4L
aa(lp587
L16L
aL4L
aa(lp588
L-196L
aL4L
aa(lp589
L-8L
aL4L
aa(lp590
L-192L
aL8L
aa(lp591
L-152L
aL4L
aa(lp592
L-20L
aL4L
aa(lp593
L-4L
aL4L
aa(lp594
L-184L
aL4L
aa(lp595
L-12L
aL4L
aa(lp596
L-180L
aL4L
aa(lp597
L-16L
aL4L
aasS'c_tolower'
p598
(lp599
(lp600
L-4L
aL4L
aa(lp601
L8L
aL8L
aasS'frame_dummy'
p602
(lp603
(lp604
L-3L
aL8L
aasS'rpl_vfprintf'
p605
(lp606
(lp607
L-2032L
aL1L
aa(lp608
L-16L
aL8L
aa(lp609
L-2072L
aL8L
aa(lp610
L-20L
aL4L
aa(lp611
L-2064L
aL8L
aa(lp612
L-2040L
aL8L
aa(lp613
L-8L
aL8L
aa(lp614
L8L
aL8L
aa(lp615
L-2056L
aL8L
aasS'savewd_errno'
p616
(lp617
(lp618
L-8L
aL8L
aa(lp619
L8L
aL8L
aasS'printf_parse'
p620
(lp621
(lp622
L-144L
aL8L
aa(lp623
L-80L
aL8L
aa(lp624
L-264L
aL8L
aa(lp625
L-16L
aL8L
aa(lp626
L-256L
aL8L
aa(lp627
L-248L
aL8L
aa(lp628
L-120L
aL4L
aa(lp629
L-116L
aL4L
aa(lp630
L-24L
aL8L
aa(lp631
L-112L
aL8L
aa(lp632
L-96L
aL8L
aa(lp633
L-232L
aL8L
aa(lp634
L-32L
aL8L
aa(lp635
L-224L
aL8L
aa(lp636
L-136L
aL8L
aa(lp637
L-216L
aL8L
aa(lp638
L-40L
aL8L
aa(lp639
L-208L
aL8L
aa(lp640
L-48L
aL8L
aa(lp641
L-200L
aL8L
aa(lp642
L-192L
aL8L
aa(lp643
L-88L
aL8L
aa(lp644
L-184L
aL8L
aa(lp645
L8L
aL8L
aa(lp646
L-49L
aL1L
aa(lp647
L-176L
aL8L
aa(lp648
L-128L
aL8L
aa(lp649
L-168L
aL8L
aa(lp650
L-64L
aL8L
aa(lp651
L-160L
aL8L
aa(lp652
L-104L
aL8L
aa(lp653
L-152L
aL8L
aa(lp654
L-72L
aL8L
aa(lp655
L-8L
aL8L
aasS'set_quoting_style'
p656
(lp657
(lp658
L-12L
aL4L
aa(lp659
L-8L
aL8L
aa(lp660
L8L
aL8L
aasS'quotearg_n_options'
p661
(lp662
(lp663
L-96L
aL8L
aa(lp664
L-16L
aL8L
aa(lp665
L-28L
aL4L
aa(lp666
L-88L
aL8L
aa(lp667
L-21L
aL1L
aa(lp668
L-20L
aL4L
aa(lp669
L-80L
aL8L
aa(lp670
L-56L
aL8L
aa(lp671
L-44L
aL4L
aa(lp672
L-40L
aL8L
aa(lp673
L-8L
aL8L
aa(lp674
L-68L
aL4L
aa(lp675
L8L
aL8L
aasS'locale_charset'
p676
(lp677
(lp678
L-16L
aL8L
aa(lp679
L-8L
aL8L
aa(lp680
L8L
aL8L
aasS'__do_global_dtors_aux'
p681
(lp682
(lp683
L-3L
aL8L
aasS'quotearg_mem'
p684
(lp685
(lp686
L-16L
aL8L
aa(lp687
L-8L
aL8L
aa(lp688
L8L
aL8L
aasS'mode_adjust'
p689
(lp690
(lp691
L-64L
aL8L
aa(lp692
L-56L
aL8L
aa(lp693
L-4L
aL4L
aa(lp694
L-20L
aL4L
aa(lp695
L-16L
aL4L
aa(lp696
L-24L
aL4L
aa(lp697
L-44L
aL4L
aa(lp698
L-8L
aL4L
aa(lp699
L-40L
aL1L
aa(lp700
L-12L
aL4L
aa(lp701
L-36L
aL4L
aa(lp702
L8L
aL8L
aasS'xmalloc'
p703
(lp704
(lp705
L-24L
aL8L
aa(lp706
L-8L
aL8L
aa(lp707
L8L
aL8L
aasS'setfscreatecon'
p708
(lp709
(lp710
L-8L
aL8L
aa(lp711
L8L
aL8L
aasS'set_custom_quoting'
p712
(lp713
(lp714
L-24L
aL8L
aa(lp715
L-16L
aL8L
aa(lp716
L8L
aL8L
aa(lp717
L-8L
aL8L
aasS'rpl_fclose'
p718
(lp719
(lp720
L-24L
aL8L
aa(lp721
L8L
aL8L
aa(lp722
L-12L
aL4L
aa(lp723
L-8L
aL4L
aa(lp724
L-4L
aL4L
aasS'register_tm_clones'
p725
(lp726
(lp727
L-3L
aL8L
aasS'savewd_process_files'
p728
(lp729
(lp730
L-64L
aL8L
aa(lp731
L-32L
aL1L
aa(lp732
L-16L
aL4L
aa(lp733
L-56L
aL8L
aa(lp734
L-4L
aL4L
aa(lp735
L-20L
aL4L
aa(lp736
L-48L
aL8L
aa(lp737
L-24L
aL4L
aa(lp738
L-12L
aL4L
aa(lp739
L-8L
aL4L
aa(lp740
L8L
aL8L
aa(lp741
L-36L
aL4L
aasS'mode_create_from_ref'
p742
(lp743
(lp744
L-152L
aL8L
aa(lp745
L-144L
aL1L
aa(lp746
L8L
aL8L
aa(lp747
L-120L
aL4L
aasS'setexeccon'
p748
(lp749
(lp750
L-8L
aL8L
aa(lp751
L8L
aL8L
aasS'savewd_delegating'
p752
(lp753
(lp754
L-8L
aL8L
aa(lp755
L8L
aL8L
aasS'get_charset_aliases'
p756
(lp757
(lp758
L-256L
aL1L
aa(lp759
L-192L
aL1L
aa(lp760
L-32L
aL8L
aa(lp761
L-92L
aL4L
aa(lp762
L-120L
aL8L
aa(lp763
L-128L
aL8L
aa(lp764
L-16L
aL8L
aa(lp765
L-48L
aL8L
aa(lp766
L-40L
aL8L
aa(lp767
L-112L
aL8L
aa(lp768
L-88L
aL8L
aa(lp769
L-8L
aL8L
aa(lp770
L-76L
aL4L
aa(lp771
L-104L
aL8L
aa(lp772
L-60L
aL4L
aa(lp773
L-72L
aL8L
aa(lp774
L-56L
aL8L
aa(lp775
L-24L
aL8L
aa(lp776
L8L
aL8L
aasS'mode_compile'
p777
(lp778
(lp779
L-16L
aL8L
aa(lp780
L-45L
aL1L
aa(lp781
L-44L
aL4L
aa(lp782
L8L
aL8L
aa(lp783
L-73L
aL1L
aa(lp784
L-104L
aL8L
aa(lp785
L-20L
aL4L
aa(lp786
L-36L
aL4L
aa(lp787
L-32L
aL8L
aa(lp788
L-56L
aL4L
aa(lp789
L-60L
aL4L
aa(lp790
L-72L
aL8L
aa(lp791
L-88L
aL8L
aa(lp792
L-40L
aL4L
aa(lp793
L-52L
aL4L
aa(lp794
L-8L
aL8L
aasS'quote_n'
p795
(lp796
(lp797
L-16L
aL8L
aa(lp798
L-4L
aL4L
aa(lp799
L8L
aL8L
aasS'matchpathcon_init_prefix'
p800
(lp801
(lp802
L-16L
aL8L
aa(lp803
L-8L
aL8L
aa(lp804
L8L
aL8L
aasS'make_ancestor'
p805
(lp806
(lp807
L-32L
aL8L
aa(lp808
L-44L
aL4L
aa(lp809
L-72L
aL8L
aa(lp810
L-37L
aL1L
aa(lp811
L-36L
aL4L
aa(lp812
L-64L
aL8L
aa(lp813
L8L
aL8L
aa(lp814
L-56L
aL8L
aa(lp815
L-20L
aL4L
aasS'version_etc_arn'
p816
(lp817
(lp818
L-128L
aL8L
aa(lp819
L-96L
aL8L
aa(lp820
L-80L
aL8L
aa(lp821
L-120L
aL8L
aa(lp822
L-64L
aL8L
aa(lp823
L-112L
aL8L
aa(lp824
L-88L
aL8L
aa(lp825
L-72L
aL8L
aa(lp826
L-104L
aL8L
aa(lp827
L-56L
aL8L
aa(lp828
L8L
aL8L
aasS'freecon'
p829
(lp830
(lp831
L-8L
aL8L
aa(lp832
L8L
aL8L
aasS'make_node_op_equals'
p833
(lp834
(lp835
L-24L
aL4L
aa(lp836
L-8L
aL8L
aa(lp837
L-20L
aL4L
aa(lp838
L8L
aL8L
aasS'xsum4'
p839
(lp840
(lp841
L-32L
aL8L
aa(lp842
L-24L
aL8L
aa(lp843
L-16L
aL8L
aa(lp844
L8L
aL8L
aa(lp845
L-8L
aL8L
aasS'c_isalpha'
p846
(lp847
(lp848
L-4L
aL4L
aa(lp849
L8L
aL8L
aasS'xsum3'
p850
(lp851
(lp852
L-24L
aL8L
aa(lp853
L-16L
aL8L
aa(lp854
L8L
aL8L
aa(lp855
L-8L
aL8L
aasS'set_char_quoting'
p856
(lp857
(lp858
L-48L
aL4L
aa(lp859
L-16L
aL8L
aa(lp860
L-44L
aL1L
aa(lp861
L-40L
aL8L
aa(lp862
L-1L
aL1L
aa(lp863
L8L
aL8L
aa(lp864
L-24L
aL4L
aa(lp865
L-20L
aL4L
aasS'quotearg_n_custom_mem'
p866
(lp867
(lp868
L-80L
aL8L
aa(lp869
L-64L
aL8L
aa(lp870
L-16L
aL8L
aa(lp871
L-104L
aL8L
aa(lp872
L-48L
aL8L
aa(lp873
L-68L
aL4L
aa(lp874
L-32L
aL8L
aa(lp875
L-96L
aL8L
aa(lp876
L-56L
aL8L
aa(lp877
L8L
aL8L
aa(lp878
L-88L
aL8L
aa(lp879
L-40L
aL8L
aa(lp880
L-24L
aL8L
aasS'quotearg_style_mem'
p881
(lp882
(lp883
L-24L
aL8L
aa(lp884
L-16L
aL8L
aa(lp885
L-4L
aL4L
aa(lp886
L8L
aL8L
aasS'lgetfilecon'
p887
(lp888
(lp889
L-16L
aL8L
aa(lp890
L-8L
aL8L
aa(lp891
L8L
aL8L
aasS'emit_bug_reporting_address'
p892
(lp893
(lp894
L8L
aL8L
aasS'defaultcon'
p895
(lp896
(lp897
L-8L
aL8L
aa(lp898
L-12L
aL4L
aa(lp899
L8L
aL8L
aasS'rpl_getopt_long_only'
p900
(lp901
(lp902
L-24L
aL8L
aa(lp903
L8L
aL8L
aa(lp904
L-16L
aL8L
aa(lp905
L-40L
aL8L
aa(lp906
L-4L
aL4L
aa(lp907
L-32L
aL8L
aasS'prog_fprintf'
p908
(lp909
(lp910
L-224L
aL8L
aa(lp911
L-96L
aL16L
aa(lp912
L-216L
aL8L
aa(lp913
L-32L
aL16L
aa(lp914
L-80L
aL16L
aa(lp915
L-200L
aL4L
aa(lp916
L-196L
aL4L
aa(lp917
L-192L
aL8L
aa(lp918
L-112L
aL16L
aa(lp919
L-184L
aL8L
aa(lp920
L-48L
aL16L
aa(lp921
L-176L
aL1L
aa(lp922
L-160L
aL8L
aa(lp923
L-64L
aL16L
aa(lp924
L-152L
aL8L
aa(lp925
L-144L
aL8L
aa(lp926
L-136L
aL8L
aa(lp927
L-128L
aL16L
aa(lp928
L-16L
aL16L
aa(lp929
L8L
aL8L
aa(lp930
L16L
aL1L
aasS'quotearg_style'
p931
(lp932
(lp933
L-16L
aL8L
aa(lp934
L-4L
aL4L
aa(lp935
L8L
aL8L
aasS'rpl_getopt_long'
p936
(lp937
(lp938
L-24L
aL8L
aa(lp939
L8L
aL8L
aa(lp940
L-16L
aL8L
aa(lp941
L-40L
aL8L
aa(lp942
L-4L
aL4L
aa(lp943
L-32L
aL8L
aasS'savewd_chdir'
p944
(lp945
(lp946
L-48L
aL8L
aa(lp947
L-12L
aL4L
aa(lp948
L-8L
aL4L
aa(lp949
L-4L
aL4L
aa(lp950
L-36L
aL4L
aa(lp951
L-32L
aL8L
aa(lp952
L8L
aL8L
aa(lp953
L-24L
aL8L
aasS'dup_safer'
p954
(lp955
(lp956
L8L
aL8L
aa(lp957
L-4L
aL4L
aasS'clone_quoting_options'
p958
(lp959
(lp960
L-24L
aL8L
aa(lp961
L-16L
aL8L
aa(lp962
L-4L
aL4L
aa(lp963
L8L
aL8L
aasS'quotearg_n_style_colon'
p964
(lp965
(lp966
L-144L
aL8L
aa(lp967
L-112L
aL8L
aa(lp968
L-48L
aL8L
aa(lp969
L-96L
aL8L
aa(lp970
L-136L
aL8L
aa(lp971
L-80L
aL8L
aa(lp972
L-16L
aL8L
aa(lp973
L-68L
aL4L
aa(lp974
L-64L
aL8L
aa(lp975
L-128L
aL8L
aa(lp976
L-104L
aL8L
aa(lp977
L-24L
aL8L
aa(lp978
L-32L
aL8L
aa(lp979
L-40L
aL8L
aa(lp980
L-120L
aL8L
aa(lp981
L-72L
aL4L
aa(lp982
L8L
aL8L
aa(lp983
L-56L
aL8L
aasS'quotearg_n_mem'
p984
(lp985
(lp986
L-24L
aL8L
aa(lp987
L-16L
aL8L
aa(lp988
L-4L
aL4L
aa(lp989
L8L
aL8L
aasS'set_quoting_flags'
p990
(lp991
(lp992
L-28L
aL4L
aa(lp993
L-4L
aL4L
aa(lp994
L-24L
aL8L
aa(lp995
L8L
aL8L
aasS'is_smack_enabled'
p996
(lp997
(lp998
L-3L
aL8L
aa(lp999
L5L
aL8L
aasS'rpl_mbrtowc'
p1000
(lp1001
(lp1002
L-48L
aL8L
aa(lp1003
L-16L
aL1L
aa(lp1004
L-9L
aL1L
aa(lp1005
L-40L
aL8L
aa(lp1006
L-32L
aL8L
aa(lp1007
L-8L
aL8L
aa(lp1008
L8L
aL8L
aa(lp1009
L-24L
aL8L
aasS'fseterr'
p1010
(lp1011
(lp1012
L-8L
aL8L
aa(lp1013
L8L
aL8L
aasS'x2realloc'
p1014
(lp1015
(lp1016
L-16L
aL8L
aa(lp1017
L-8L
aL8L
aa(lp1018
L8L
aL8L
aasS'version_etc'
p1019
(lp1020
(lp1021
L-240L
aL8L
aa(lp1022
L16L
aL1L
aa(lp1023
L-232L
aL8L
aa(lp1024
L-112L
aL16L
aa(lp1025
L-48L
aL16L
aa(lp1026
L-224L
aL8L
aa(lp1027
L-216L
aL8L
aa(lp1028
L-80L
aL16L
aa(lp1029
L-128L
aL16L
aa(lp1030
L-200L
aL4L
aa(lp1031
L-64L
aL16L
aa(lp1032
L-196L
aL4L
aa(lp1033
L-192L
aL8L
aa(lp1034
L-184L
aL8L
aa(lp1035
L-176L
aL1L
aa(lp1036
L-144L
aL8L
aa(lp1037
L-32L
aL16L
aa(lp1038
L-16L
aL16L
aa(lp1039
L-96L
aL16L
aa(lp1040
L-136L
aL8L
aa(lp1041
L8L
aL8L
aasS'c_isalnum'
p1042
(lp1043
(lp1044
L-4L
aL4L
aa(lp1045
L8L
aL8L
aasS'ignorable_ctx_err'
p1046
(lp1047
(lp1048
L-4L
aL4L
aa(lp1049
L8L
aL8L
aasS'process_dir'
p1050
(lp1051
(lp1052
L-28L
aL4L
aa(lp1053
L-56L
aL8L
aa(lp1054
L-48L
aL8L
aa(lp1055
L-24L
aL8L
aa(lp1056
L-40L
aL8L
aa(lp1057
L8L
aL8L
aasS'security_check_context_raw'
p1058
(lp1059
(lp1060
L-8L
aL8L
aa(lp1061
L8L
aL8L
aasS'process_long_option'
p1062
(lp1063
(lp1064
L-96L
aL8L
aa(lp1065
L-80L
aL8L
aa(lp1066
L24L
aL4L
aa(lp1067
L-60L
aL4L
aa(lp1068
L-32L
aL8L
aa(lp1069
L-120L
aL8L
aa(lp1070
L-64L
aL4L
aa(lp1071
L32L
aL8L
aa(lp1072
L-84L
aL4L
aa(lp1073
L-48L
aL4L
aa(lp1074
L-112L
aL8L
aa(lp1075
L-88L
aL4L
aa(lp1076
L16L
aL8L
aa(lp1077
L-44L
aL4L
aa(lp1078
L-24L
aL8L
aa(lp1079
L-104L
aL8L
aa(lp1080
L-56L
aL8L
aa(lp1081
L8L
aL8L
aa(lp1082
L-68L
aL4L
aa(lp1083
L-40L
aL8L
aasS'quotearg_n_style'
p1084
(lp1085
(lp1086
L-80L
aL8L
aa(lp1087
L-72L
aL4L
aa(lp1088
L-68L
aL4L
aa(lp1089
L-64L
aL1L
aa(lp1090
L8L
aL8L
aasS'make_dir_parents'
p1091
(lp1092
(lp1093
L-272L
aL8L
aa(lp1094
L-264L
aL1L
aa(lp1095
L-260L
aL4L
aa(lp1096
L8L
aL8L
aa(lp1097
L-248L
aL8L
aa(lp1098
L-240L
aL8L
aa(lp1099
L32L
aL4L
aa(lp1100
L-232L
aL8L
aa(lp1101
L-224L
aL1L
aa(lp1102
L-72L
aL4L
aa(lp1103
L40L
aL4L
aa(lp1104
L16L
aL4L
aa(lp1105
L-200L
aL4L
aa(lp1106
L-64L
aL8L
aa(lp1107
L-49L
aL1L
aa(lp1108
L-48L
aL4L
aa(lp1109
L-256L
aL8L
aa(lp1110
L-43L
aL1L
aa(lp1111
L-42L
aL1L
aa(lp1112
L-41L
aL1L
aa(lp1113
L-40L
aL4L
aa(lp1114
L-36L
aL4L
aa(lp1115
L-32L
aL8L
aa(lp1116
L24L
aL4L
aa(lp1117
L-20L
aL4L
aasS'xzalloc'
p1118
(lp1119
(lp1120
L-8L
aL8L
aa(lp1121
L8L
aL8L
aasS'c_isascii'
p1122
(lp1123
(lp1124
L-4L
aL4L
aa(lp1125
L8L
aL8L
aasS'hard_locale'
p1126
(lp1127
(lp1128
L-16L
aL8L
aa(lp1129
L-20L
aL4L
aa(lp1130
L8L
aL8L
aa(lp1131
L-1L
aL1L
aasS'gettext_quote'
p1132
(lp1133
(lp1134
L-28L
aL4L
aa(lp1135
L-24L
aL8L
aa(lp1136
L-16L
aL8L
aa(lp1137
L8L
aL8L
aa(lp1138
L-8L
aL8L
aasS'c_isupper'
p1139
(lp1140
(lp1141
L-4L
aL4L
aa(lp1142
L8L
aL8L
aasS'matchpathcon'
p1143
(lp1144
(lp1145
L-24L
aL8L
aa(lp1146
L-8L
aL8L
aa(lp1147
L-12L
aL4L
aa(lp1148
L8L
aL8L
aasS'xstrdup'
p1149
(lp1150
(lp1151
L-8L
aL8L
aa(lp1152
L8L
aL8L
aasS'__libc_csu_init'
p1153
(lp1154
sS'xcharalloc'
p1155
(lp1156
(lp1157
L-8L
aL8L
aa(lp1158
L8L
aL8L
aasS'decimal_point_char'
p1159
(lp1160
(lp1161
L-8L
aL8L
aa(lp1162
L8L
aL8L
aasS'quotearg_colon_mem'
p1163
(lp1164
(lp1165
L-16L
aL8L
aa(lp1166
L-8L
aL8L
aa(lp1167
L8L
aL8L
aasS'_getopt_long_only_r'
p1168
(lp1169
(lp1170
L-48L
aL8L
aa(lp1171
L-16L
aL8L
aa(lp1172
L-40L
aL8L
aa(lp1173
L-4L
aL4L
aa(lp1174
L-32L
aL8L
aa(lp1175
L8L
aL8L
aa(lp1176
L-24L
aL8L
aasS'savewd_init'
p1177
(lp1178
(lp1179
L-8L
aL8L
aa(lp1180
L8L
aL8L
aasS'quote'
p1181
(lp1182
(lp1183
L-8L
aL8L
aa(lp1184
L8L
aL8L
aasS'__libc_csu_fini'
p1185
(lp1186
(lp1187
L-3L
aL8L
aasS'rpl_getopt_internal'
p1188
(lp1189
(lp1190
L-32L
aL8L
aa(lp1191
L-56L
aL8L
aa(lp1192
L16L
aL4L
aa(lp1193
L-20L
aL4L
aa(lp1194
L-48L
aL8L
aa(lp1195
L-24L
aL4L
aa(lp1196
L-40L
aL8L
aa(lp1197
L8L
aL8L
aa(lp1198
L-4L
aL4L
aasS'savewd_restore'
p1199
(lp1200
(lp1201
L-28L
aL4L
aa(lp1202
L-24L
aL8L
aa(lp1203
L8L
aL8L
aa(lp1204
L-12L
aL4L
aa(lp1205
L-8L
aL4L
aa(lp1206
L-4L
aL4L
aasS'quotearg_colon'
p1207
(lp1208
(lp1209
L-8L
aL8L
aa(lp1210
L8L
aL8L
aasS'c_isgraph'
p1211
(lp1212
(lp1213
L-4L
aL4L
aa(lp1214
L8L
aL8L
aasS'deregister_tm_clones'
p1215
(lp1216
(lp1217
L-3L
aL8L
aasS'emit_ancillary_info'
p1218
(lp1219
(lp1220
L-144L
aL8L
aa(lp1221
L-128L
aL8L
aa(lp1222
L-24L
aL8L
aa(lp1223
L-64L
aL8L
aa(lp1224
L-56L
aL8L
aa(lp1225
L-80L
aL8L
aa(lp1226
L-168L
aL8L
aa(lp1227
L-112L
aL8L
aa(lp1228
L-32L
aL8L
aa(lp1229
L-96L
aL8L
aa(lp1230
L-160L
aL8L
aa(lp1231
L-136L
aL8L
aa(lp1232
L-72L
aL8L
aa(lp1233
L-120L
aL8L
aa(lp1234
L-152L
aL8L
aa(lp1235
L-104L
aL8L
aa(lp1236
L-40L
aL8L
aa(lp1237
L8L
aL8L
aa(lp1238
L-88L
aL8L
aasS'rpl_getopt'
p1239
(lp1240
(lp1241
L-24L
aL8L
aa(lp1242
L-16L
aL8L
aa(lp1243
L-4L
aL4L
aa(lp1244
L8L
aL8L
aasS'savewd_finish'
p1245
(lp1246
(lp1247
L-8L
aL8L
aa(lp1248
L8L
aL8L
aasS'fsetfilecon'
p1249
(lp1250
(lp1251
L-16L
aL8L
aa(lp1252
L-4L
aL4L
aa(lp1253
L8L
aL8L
aasS'xcalloc'
p1254
(lp1255
(lp1256
L-32L
aL8L
aa(lp1257
L-24L
aL8L
aa(lp1258
L8L
aL8L
aa(lp1259
L-8L
aL8L
aasS'c_isprint'
p1260
(lp1261
(lp1262
L-4L
aL4L
aa(lp1263
L8L
aL8L
aasS'announce_mkdir'
p1264
(lp1265
(lp1266
L-32L
aL8L
aa(lp1267
L-24L
aL8L
aa(lp1268
L8L
aL8L
aa(lp1269
L-8L
aL8L
aasS'quotearg_n'
p1270
(lp1271
(lp1272
L-16L
aL8L
aa(lp1273
L-4L
aL4L
aa(lp1274
L8L
aL8L
aasS'quotearg_custom_mem'
p1275
(lp1276
(lp1277
L-32L
aL8L
aa(lp1278
L-24L
aL8L
aa(lp1279
L-16L
aL8L
aa(lp1280
L8L
aL8L
aa(lp1281
L-8L
aL8L
aasS'quotearg_custom'
p1282
(lp1283
(lp1284
L-24L
aL8L
aa(lp1285
L-16L
aL8L
aa(lp1286
L8L
aL8L
aa(lp1287
L-8L
aL8L
aasS'c_islower'
p1288
(lp1289
(lp1290
L-4L
aL4L
aa(lp1291
L8L
aL8L
aasS'rpl_fflush'
p1292
(lp1293
(lp1294
L-8L
aL8L
aa(lp1295
L8L
aL8L
aasS'c_isblank'
p1296
(lp1297
(lp1298
L-4L
aL4L
aa(lp1299
L8L
aL8L
aasS'last_component'
p1300
(lp1301
(lp1302
L-40L
aL8L
aa(lp1303
L-8L
aL8L
aa(lp1304
L8L
aL8L
aa(lp1305
L-17L
aL1L
aa(lp1306
L-16L
aL8L
aasS'lsetfilecon'
p1307
(lp1308
(lp1309
L-16L
aL8L
aa(lp1310
L-8L
aL8L
aa(lp1311
L8L
aL8L
aasS'clear_ungetc_buffer_preserving_position'
p1312
(lp1313
(lp1314
L-8L
aL8L
aa(lp1315
L8L
aL8L
aasS'string_to_security_class'
p1316
(lp1317
(lp1318
L-8L
aL8L
aa(lp1319
L8L
aL8L
aas.