(dp0
S'close_stdout_set_ignore_EPIPE'
p1
(lp2
(lp3
L-4L
aL1L
aasS'xnmalloc'
p4
(lp5
(lp6
L-16L
aL8L
aa(lp7
L-8L
aL8L
aasS'version_etc_va'
p8
(lp9
(lp10
L-128L
aL8L
aa(lp11
L-96L
aL8L
aa(lp12
L-152L
aL8L
aa(lp13
L-144L
aL8L
aa(lp14
L-120L
aL8L
aa(lp15
L-136L
aL8L
aa(lp16
L-104L
aL8L
aa(lp17
L-8L
aL8L
aasS'quote_n_mem'
p18
(lp19
(lp20
L-24L
aL8L
aa(lp21
L-16L
aL8L
aa(lp22
L-4L
aL4L
aasS'xrealloc'
p23
(lp24
(lp25
L-16L
aL8L
aa(lp26
L-8L
aL8L
aasS'emit_mandatory_arg_note'
p27
(lp28
sS'c_toupper'
p29
(lp30
(lp31
L-4L
aL4L
aasS'xalloc_die'
p32
(lp33
(lp34
L-3L
aL8L
aasS'version_etc_ar'
p35
(lp36
(lp37
L-32L
aL8L
aa(lp38
L-56L
aL8L
aa(lp39
L-48L
aL8L
aa(lp40
L-24L
aL8L
aa(lp41
L-40L
aL8L
aa(lp42
L-8L
aL8L
aasS'quotearg_char'
p43
(lp44
(lp45
L-8L
aL8L
aa(lp46
L-12L
aL1L
aasS'c_ispunct'
p47
(lp48
(lp49
L-4L
aL4L
aasS'set_program_name'
p50
(lp51
(lp52
L-24L
aL8L
aa(lp53
L-16L
aL8L
aa(lp54
L-8L
aL8L
aasS'usage'
p55
(lp56
(lp57
L-20L
aL4L
aasS'fold_file'
p58
(lp59
(lp60
L-96L
aL8L
aa(lp61
L-64L
aL4L
aa(lp62
L-60L
aL4L
aa(lp63
L-88L
aL8L
aa(lp64
L-32L
aL8L
aa(lp65
L-48L
aL8L
aa(lp66
L-56L
aL8L
aa(lp67
L-40L
aL8L
aa(lp68
L-24L
aL8L
aa(lp69
L-65L
aL1L
aasS'quotearg_alloc_mem'
p70
(lp71
(lp72
L-64L
aL8L
aa(lp73
L-32L
aL4L
aa(lp74
L-28L
aL4L
aa(lp75
L-16L
aL8L
aa(lp76
L-56L
aL8L
aa(lp77
L-48L
aL8L
aa(lp78
L-24L
aL8L
aa(lp79
L-8L
aL8L
aa(lp80
L-40L
aL8L
aasS'c_iscntrl'
p81
(lp82
(lp83
L-4L
aL4L
aasS'xmemdup'
p84
(lp85
(lp86
L-16L
aL8L
aa(lp87
L-8L
aL8L
aasS'quotearg_n_custom'
p88
(lp89
(lp90
L-32L
aL8L
aa(lp91
L-24L
aL8L
aa(lp92
L-16L
aL8L
aa(lp93
L-4L
aL4L
aasS'quotearg_alloc'
p94
(lp95
(lp96
L-24L
aL8L
aa(lp97
L-16L
aL8L
aa(lp98
L-8L
aL8L
aasS'quotearg_n_style_mem'
p99
(lp100
(lp101
L-64L
aL1L
aa(lp102
L-88L
aL8L
aa(lp103
L-80L
aL8L
aa(lp104
L-72L
aL4L
aa(lp105
L-8L
aL8L
aa(lp106
L-68L
aL4L
aasS'c_strcasecmp'
p107
(lp108
(lp109
L-48L
aL8L
aa(lp110
L-40L
aL8L
aa(lp111
L-18L
aL1L
aa(lp112
L-17L
aL1L
aasS'bkm_scale'
p113
(lp114
(lp115
L-12L
aL4L
aa(lp116
L-8L
aL8L
aasS'x2nrealloc'
p117
(lp118
(lp119
L-40L
aL8L
aa(lp120
L-32L
aL8L
aa(lp121
L-24L
aL8L
aa(lp122
L-8L
aL8L
aasS'quoting_options_from_style'
p123
(lp124
(lp125
L-48L
aL8L
aa(lp126
L-32L
aL8L
aa(lp127
L-76L
aL4L
aa(lp128
L-72L
aL8L
aa(lp129
L-16L
aL8L
aa(lp130
L-64L
aL8L
aa(lp131
L-40L
aL8L
aa(lp132
L-24L
aL8L
aa(lp133
L-56L
aL8L
aa(lp134
L-8L
aL8L
aasS'get_quoting_style'
p135
(lp136
(lp137
L-8L
aL8L
aasS'quotearg_char_mem'
p138
(lp139
(lp140
L-64L
aL8L
aa(lp141
L-48L
aL8L
aa(lp142
L-56L
aL8L
aa(lp143
L-32L
aL8L
aa(lp144
L-84L
aL1L
aa(lp145
L-16L
aL8L
aa(lp146
L-80L
aL8L
aa(lp147
L-40L
aL8L
aa(lp148
L-72L
aL8L
aa(lp149
L-24L
aL8L
aa(lp150
L-8L
aL8L
aasS'c_isdigit'
p151
(lp152
(lp153
L-4L
aL4L
aasS'close_stdout'
p154
(lp155
(lp156
L-24L
aL8L
aasS'c_isspace'
p157
(lp158
(lp159
L-4L
aL4L
aasS'quotearg'
p160
(lp161
(lp162
L-8L
aL8L
aasS'fdadvise'
p163
(lp164
(lp165
L-40L
aL8L
aa(lp166
L-4L
aL4L
aa(lp167
L-32L
aL8L
aa(lp168
L-24L
aL4L
aa(lp169
L-20L
aL4L
aasS'quotearg_free'
p170
(lp171
(lp172
L-8L
aL8L
aa(lp173
L-12L
aL4L
aasS'bkm_scale_by_power'
p174
(lp175
(lp176
L-32L
aL4L
aa(lp177
L-28L
aL4L
aa(lp178
L-24L
aL8L
aa(lp179
L-4L
aL4L
aasS'close_stdout_set_file_name'
p180
(lp181
(lp182
L-8L
aL8L
aasS'rpl_fseeko'
p183
(lp184
(lp185
L-8L
aL8L
aa(lp186
L-36L
aL4L
aa(lp187
L-32L
aL8L
aa(lp188
L-24L
aL8L
aasS'xnrealloc'
p189
(lp190
(lp191
L-24L
aL8L
aa(lp192
L-16L
aL8L
aa(lp193
L-8L
aL8L
aasS'quote_mem'
p194
(lp195
(lp196
L-16L
aL8L
aa(lp197
L-8L
aL8L
aasS'quotearg_buffer_restyled'
p198
(lp199
(lp200
L-192L
aL8L
aa(lp201
L-64L
aL8L
aa(lp202
L-184L
aL8L
aa(lp203
L-176L
aL8L
aa(lp204
L-40L
aL8L
aa(lp205
L-168L
aL4L
aa(lp206
L-8L
aL8L
aa(lp207
L-164L
aL4L
aa(lp208
L-160L
aL8L
aa(lp209
L-152L
aL8L
aa(lp210
L-144L
aL8L
aa(lp211
L-56L
aL8L
aa(lp212
L-136L
aL8L
aa(lp213
L-32L
aL8L
aa(lp214
L-120L
aL1L
aa(lp215
L-119L
aL1L
aa(lp216
L-118L
aL1L
aa(lp217
L-117L
aL1L
aa(lp218
L-116L
aL1L
aa(lp219
L-115L
aL1L
aa(lp220
L-113L
aL1L
aa(lp221
L-112L
aL1L
aa(lp222
L-111L
aL1L
aa(lp223
L-110L
aL1L
aa(lp224
L-109L
aL1L
aa(lp225
L-108L
aL4L
aa(lp226
L-104L
aL8L
aa(lp227
L-96L
aL8L
aa(lp228
L-48L
aL8L
aa(lp229
L-88L
aL8L
aa(lp230
L-80L
aL8L
aa(lp231
L-24L
aL8L
aa(lp232
L-72L
aL8L
aasS'quotearg_buffer'
p233
(lp234
(lp235
L-48L
aL8L
aa(lp236
L-16L
aL8L
aa(lp237
L-72L
aL8L
aa(lp238
L-64L
aL8L
aa(lp239
L-40L
aL8L
aa(lp240
L-56L
aL8L
aa(lp241
L-8L
aL8L
aa(lp242
L-20L
aL4L
aasS'close_stream'
p243
(lp244
(lp245
L-24L
aL8L
aa(lp246
L-3L
aL1L
aa(lp247
L-2L
aL1L
aa(lp248
L-1L
aL1L
aasS'c_tolower'
p249
(lp250
(lp251
L-4L
aL4L
aasS'locale_charset'
p252
(lp253
(lp254
L-16L
aL8L
aa(lp255
L-8L
aL8L
aasS'quotearg_n_style_colon'
p256
(lp257
(lp258
L-144L
aL8L
aa(lp259
L-112L
aL8L
aa(lp260
L-48L
aL8L
aa(lp261
L-96L
aL8L
aa(lp262
L-136L
aL8L
aa(lp263
L-80L
aL8L
aa(lp264
L-16L
aL8L
aa(lp265
L-68L
aL4L
aa(lp266
L-64L
aL8L
aa(lp267
L-128L
aL8L
aa(lp268
L-104L
aL8L
aa(lp269
L-24L
aL8L
aa(lp270
L-32L
aL8L
aa(lp271
L-40L
aL8L
aa(lp272
L-120L
aL8L
aa(lp273
L-72L
aL4L
aa(lp274
L-8L
aL8L
aa(lp275
L-56L
aL8L
aasS'xstrtoumax'
p276
(lp277
(lp278
L-80L
aL8L
aa(lp279
L-48L
aL4L
aa(lp280
L-44L
aL4L
aa(lp281
L-16L
aL8L
aa(lp282
L-104L
aL8L
aa(lp283
L-52L
aL4L
aa(lp284
L-32L
aL8L
aa(lp285
L-96L
aL8L
aa(lp286
L-72L
aL8L
aa(lp287
L-8L
aL8L
aa(lp288
L-57L
aL1L
aa(lp289
L-56L
aL4L
aa(lp290
L-40L
aL1L
aa(lp291
L-84L
aL4L
aa(lp292
L-24L
aL8L
aasS'set_quoting_style'
p293
(lp294
(lp295
L-12L
aL4L
aa(lp296
L-8L
aL8L
aasS'quotearg_n_options'
p297
(lp298
(lp299
L-80L
aL8L
aa(lp300
L-32L
aL8L
aa(lp301
L-45L
aL1L
aa(lp302
L-44L
aL4L
aa(lp303
L-72L
aL8L
aa(lp304
L-16L
aL8L
aa(lp305
L-36L
aL4L
aa(lp306
L-64L
aL8L
aa(lp307
L-40L
aL4L
aa(lp308
L-24L
aL8L
aa(lp309
L-8L
aL8L
aa(lp310
L-52L
aL4L
aasS'frame_dummy'
p311
(lp312
(lp313
L-3L
aL8L
aasS'__do_global_dtors_aux'
p314
(lp315
(lp316
L-3L
aL8L
aasS'quotearg_mem'
p317
(lp318
(lp319
L-16L
aL8L
aa(lp320
L-8L
aL8L
aasS'xmalloc'
p321
(lp322
(lp323
L-24L
aL8L
aa(lp324
L-8L
aL8L
aasS'quotearg_custom'
p325
(lp326
(lp327
L-24L
aL8L
aa(lp328
L-16L
aL8L
aa(lp329
L-8L
aL8L
aasS'set_custom_quoting'
p330
(lp331
(lp332
L-24L
aL8L
aa(lp333
L-16L
aL8L
aa(lp334
L-8L
aL8L
aasS'rpl_fclose'
p335
(lp336
(lp337
L-24L
aL8L
aa(lp338
L-12L
aL4L
aa(lp339
L-8L
aL4L
aa(lp340
L-4L
aL4L
aasS'register_tm_clones'
p341
(lp342
(lp343
L-3L
aL8L
aasS'get_charset_aliases'
p344
(lp345
(lp346
L-224L
aL8L
aa(lp347
L-208L
aL8L
aa(lp348
L-144L
aL8L
aa(lp349
L-136L
aL8L
aa(lp350
L-160L
aL8L
aa(lp351
L-216L
aL8L
aa(lp352
L-192L
aL8L
aa(lp353
L-128L
aL1L
aa(lp354
L-244L
aL4L
aa(lp355
L-176L
aL8L
aa(lp356
L-240L
aL4L
aa(lp357
L-200L
aL8L
aa(lp358
L-8L
aL8L
aa(lp359
L-236L
aL4L
aa(lp360
L-152L
aL8L
aa(lp361
L-232L
aL8L
aa(lp362
L-184L
aL8L
aa(lp363
L-64L
aL1L
aa(lp364
L-168L
aL8L
aasS'emit_stdin_note'
p365
(lp366
sS'c_isxdigit'
p367
(lp368
(lp369
L-4L
aL4L
aasS'quote_n'
p370
(lp371
(lp372
L-16L
aL8L
aa(lp373
L-4L
aL4L
aasS'version_etc_arn'
p374
(lp375
(lp376
L-128L
aL8L
aa(lp377
L-96L
aL8L
aa(lp378
L-80L
aL8L
aa(lp379
L-120L
aL8L
aa(lp380
L-64L
aL8L
aa(lp381
L-112L
aL8L
aa(lp382
L-88L
aL8L
aa(lp383
L-72L
aL8L
aa(lp384
L-104L
aL8L
aa(lp385
L-56L
aL8L
aasS'adjust_column'
p386
(lp387
(lp388
L-12L
aL1L
aa(lp389
L-8L
aL8L
aasS'fadvise'
p390
(lp391
(lp392
L-8L
aL8L
aa(lp393
L-12L
aL4L
aasS'c_isalpha'
p394
(lp395
(lp396
L-4L
aL4L
aasS'set_char_quoting'
p397
(lp398
(lp399
L-48L
aL4L
aa(lp400
L-16L
aL4L
aa(lp401
L-12L
aL4L
aa(lp402
L-40L
aL8L
aa(lp403
L-8L
aL8L
aa(lp404
L-44L
aL1L
aa(lp405
L-17L
aL1L
aasS'quotearg_n_custom_mem'
p406
(lp407
(lp408
L-80L
aL8L
aa(lp409
L-64L
aL8L
aa(lp410
L-16L
aL8L
aa(lp411
L-104L
aL8L
aa(lp412
L-48L
aL8L
aa(lp413
L-68L
aL4L
aa(lp414
L-32L
aL8L
aa(lp415
L-96L
aL8L
aa(lp416
L-56L
aL8L
aa(lp417
L-8L
aL8L
aa(lp418
L-88L
aL8L
aa(lp419
L-40L
aL8L
aa(lp420
L-24L
aL8L
aasS'quotearg_style_mem'
p421
(lp422
(lp423
L-24L
aL8L
aa(lp424
L-16L
aL8L
aa(lp425
L-4L
aL4L
aasS'emit_bug_reporting_address'
p426
(lp427
sS'quotearg_style'
p428
(lp429
(lp430
L-16L
aL8L
aa(lp431
L-4L
aL4L
aasS'clone_quoting_options'
p432
(lp433
(lp434
L-24L
aL8L
aa(lp435
L-8L
aL8L
aa(lp436
L-12L
aL4L
aasS'rpl_fflush'
p437
(lp438
(lp439
L-8L
aL8L
aasS'main'
p440
(lp441
(lp442
L-64L
aL8L
aa(lp443
L-32L
aL4L
aa(lp444
L-28L
aL4L
aa(lp445
L-24L
aL8L
aa(lp446
L-52L
aL4L
aa(lp447
L-10L
aL1L
aa(lp448
L-9L
aL1L
aa(lp449
L-8L
aL8L
aa(lp450
L-33L
aL1L
aasS'set_quoting_flags'
p451
(lp452
(lp453
L-28L
aL4L
aa(lp454
L-4L
aL4L
aa(lp455
L-24L
aL8L
aasS'to_uchar'
p456
(lp457
(lp458
L-4L
aL1L
aasS'rpl_mbrtowc'
p459
(lp460
(lp461
L-64L
aL8L
aa(lp462
L-16L
aL8L
aa(lp463
L-56L
aL8L
aa(lp464
L-21L
aL1L
aa(lp465
L-20L
aL1L
aa(lp466
L-48L
aL8L
aa(lp467
L-8L
aL8L
aa(lp468
L-40L
aL8L
aasS'x2realloc'
p469
(lp470
(lp471
L-16L
aL8L
aa(lp472
L-8L
aL8L
aasS'version_etc'
p473
(lp474
(lp475
L-240L
aL8L
aa(lp476
L-112L
aL16L
aa(lp477
L-232L
aL8L
aa(lp478
L-48L
aL16L
aa(lp479
L-224L
aL8L
aa(lp480
L-216L
aL8L
aa(lp481
L-208L
aL4L
aa(lp482
L-128L
aL16L
aa(lp483
L-204L
aL4L
aa(lp484
L-200L
aL8L
aa(lp485
L-64L
aL16L
aa(lp486
L-192L
aL8L
aa(lp487
L-184L
aL8L
aa(lp488
L-176L
aL1L
aa(lp489
L-80L
aL16L
aa(lp490
L-144L
aL8L
aa(lp491
L-32L
aL16L
aa(lp492
L-16L
aL16L
aa(lp493
L-96L
aL16L
aa(lp494
L-136L
aL8L
aasS'c_isalnum'
p495
(lp496
(lp497
L-4L
aL4L
aasS'quotearg_n_style'
p498
(lp499
(lp500
L-80L
aL8L
aa(lp501
L-64L
aL1L
aa(lp502
L-72L
aL4L
aa(lp503
L-68L
aL4L
aa(lp504
L-8L
aL8L
aasS'xnumtoumax'
p505
(lp506
(lp507
L-96L
aL8L
aa(lp508
L-32L
aL8L
aa(lp509
L-60L
aL4L
aa(lp510
L-88L
aL8L
aa(lp511
L-80L
aL8L
aa(lp512
L-56L
aL8L
aa(lp513
L-72L
aL8L
aa(lp514
L-24L
aL8L
aa(lp515
L-36L
aL4L
aasS'xzalloc'
p516
(lp517
(lp518
L-8L
aL8L
aasS'c_isascii'
p519
(lp520
(lp521
L-4L
aL4L
aasS'hard_locale'
p522
(lp523
(lp524
L-8L
aL8L
aa(lp525
L-20L
aL4L
aa(lp526
L-9L
aL1L
aasS'gettext_quote'
p527
(lp528
(lp529
L-28L
aL4L
aa(lp530
L-24L
aL8L
aa(lp531
L-16L
aL8L
aa(lp532
L-8L
aL8L
aasS'c_isupper'
p533
(lp534
(lp535
L-4L
aL4L
aasS'xdectoumax'
p536
(lp537
(lp538
L-24L
aL8L
aa(lp539
L-8L
aL8L
aa(lp540
L-16L
aL8L
aa(lp541
L-44L
aL4L
aa(lp542
L-40L
aL8L
aa(lp543
L-32L
aL8L
aasS'xstrdup'
p544
(lp545
(lp546
L-8L
aL8L
aasS'__libc_csu_init'
p547
(lp548
sS'xcharalloc'
p549
(lp550
(lp551
L-8L
aL8L
aasS'quotearg_colon_mem'
p552
(lp553
(lp554
L-16L
aL8L
aa(lp555
L-8L
aL8L
aasS'quotearg_n_mem'
p556
(lp557
(lp558
L-24L
aL8L
aa(lp559
L-16L
aL8L
aa(lp560
L-4L
aL4L
aasS'quote'
p561
(lp562
(lp563
L-8L
aL8L
aasS'__libc_csu_fini'
p564
(lp565
(lp566
L-3L
aL8L
aasS'quotearg_colon'
p567
(lp568
(lp569
L-8L
aL8L
aasS'c_isgraph'
p570
(lp571
(lp572
L-4L
aL4L
aasS'deregister_tm_clones'
p573
(lp574
(lp575
L-3L
aL8L
aasS'emit_ancillary_info'
p576
(lp577
(lp578
L-160L
aL8L
aa(lp579
L-128L
aL8L
aa(lp580
L-40L
aL8L
aa(lp581
L-72L
aL8L
aa(lp582
L-80L
aL8L
aa(lp583
L-184L
aL8L
aa(lp584
L-112L
aL8L
aa(lp585
L-64L
aL8L
aa(lp586
L-96L
aL8L
aa(lp587
L-144L
aL8L
aa(lp588
L-136L
aL8L
aa(lp589
L-48L
aL8L
aa(lp590
L-88L
aL8L
aa(lp591
L-152L
aL8L
aa(lp592
L-168L
aL8L
aa(lp593
L-120L
aL8L
aa(lp594
L-56L
aL8L
aa(lp595
L-24L
aL8L
aa(lp596
L-104L
aL8L
aasS'xcalloc'
p597
(lp598
(lp599
L-32L
aL8L
aa(lp600
L-24L
aL8L
aa(lp601
L-8L
aL8L
aasS'c_isprint'
p602
(lp603
(lp604
L-4L
aL4L
aasS'quotearg_n'
p605
(lp606
(lp607
L-16L
aL8L
aa(lp608
L-4L
aL4L
aasS'quotearg_custom_mem'
p609
(lp610
(lp611
L-32L
aL8L
aa(lp612
L-24L
aL8L
aa(lp613
L-16L
aL8L
aa(lp614
L-8L
aL8L
aasS'c_islower'
p615
(lp616
(lp617
L-4L
aL4L
aasS'c_isblank'
p618
(lp619
(lp620
L-4L
aL4L
aasS'clear_ungetc_buffer_preserving_position'
p621
(lp622
(lp623
L-8L
aL8L
aas.