(dp0
S'apply_mode'
p1
(lp2
(lp3
L-64L
aL8L
aa(lp4
L-32L
aL8L
aa(lp5
L-56L
aL8L
aa(lp6
L-24L
aL8L
aa(lp7
L-36L
aL4L
aasS'register_tm_clones'
p8
(lp9
(lp10
L-3L
aL8L
aasS'__do_global_dtors_aux'
p11
(lp12
(lp13
L-3L
aL8L
aasS'frame_dummy'
p14
(lp15
(lp16
L-3L
aL8L
aasS'deregister_tm_clones'
p17
(lp18
(lp19
L-3L
aL8L
aasS'fileno_to_name'
p20
(lp21
(lp22
L-20L
aL4L
aa(lp23
L-8L
aL8L
aasS'stdbuf'
p24
(lp25
(lp26
L-24L
aL8L
aa(lp27
L-16L
aL8L
aa(lp28
L-8L
aL8L
aas.